

Microchip MPLAB XC8 Assembler V2.41 build 20230208172133 
                                                                                               Thu Feb 15 10:28:10 2024

Microchip MPLAB XC8 C Compiler v2.41 (Free license) build 20230208172133 Og1 
     1                           	processor	18F27Q84
     2                           	fnconf	rparam,??,?,0
     3                           	pagewidth 120
     4                           	opt	flic
     5                           	psect	idataCOMRAM,global,class=CODE,delta=1,noexec
     6                           	psect	idataBANK5,global,class=CODE,delta=1,noexec
     7                           	psect	smallconst,global,reloc=2,class=SMALLCONST,delta=1,noexec
     8                           	psect	cinit,global,reloc=2,class=CODE,delta=1
     9                           	psect	bssCOMRAM,global,class=COMRAM,space=1,delta=1,lowdata,noexec
    10                           	psect	dataCOMRAM,global,class=COMRAM,space=1,delta=1,lowdata,noexec
    11                           	psect	bssBANK5,global,class=BANK5,space=1,delta=1,lowdata,noexec
    12                           	psect	dataBANK5,global,class=BANK5,space=1,delta=1,lowdata,noexec
    13                           	psect	cstackBANK5,global,class=BANK5,space=1,delta=1,lowdata,noexec
    14                           	psect	cstackCOMRAM,global,class=COMRAM,space=1,delta=1,lowdata,noexec
    15                           	psect	text0,global,reloc=2,class=CODE,delta=1
    16                           	psect	text1,global,reloc=2,class=CODE,delta=1
    17                           	psect	text2,global,reloc=2,class=CODE,delta=1
    18                           	psect	text3,global,reloc=2,class=CODE,delta=1
    19                           	psect	text4,global,reloc=2,class=CODE,delta=1
    20                           	psect	text5,global,reloc=2,class=CODE,delta=1
    21                           	psect	text6,global,reloc=2,class=CODE,delta=1
    22                           	psect	text7,global,reloc=2,class=CODE,delta=1,group=1
    23                           	psect	text8,global,reloc=2,class=CODE,delta=1,group=1
    24                           	psect	text9,global,reloc=2,class=CODE,delta=1
    25                           	psect	text10,global,reloc=2,class=CODE,delta=1
    26                           	psect	text11,global,reloc=2,class=CODE,delta=1
    27                           	psect	text12,global,reloc=2,class=CODE,delta=1
    28                           	psect	text13,global,reloc=2,class=CODE,delta=1
    29                           	psect	text14,global,reloc=2,class=CODE,delta=1
    30                           	psect	text15,global,reloc=2,class=CODE,delta=1
    31                           	psect	text16,global,reloc=2,class=CODE,delta=1
    32                           	psect	text17,global,reloc=2,class=CODE,delta=1
    33                           	psect	text18,global,reloc=2,class=CODE,delta=1
    34                           	psect	text19,global,reloc=2,class=CODE,delta=1
    35                           	psect	text20,global,reloc=2,class=CODE,delta=1
    36                           	psect	text21,global,reloc=2,class=CODE,delta=1
    37                           	psect	text22,global,reloc=2,class=CODE,delta=1
    38                           	psect	text23,global,reloc=2,class=CODE,delta=1
    39                           	psect	text24,global,reloc=2,class=CODE,delta=1
    40                           	psect	text25,global,reloc=2,class=CODE,delta=1
    41                           	psect	text26,global,reloc=2,class=CODE,delta=1
    42                           	psect	text27,global,reloc=2,class=CODE,delta=1
    43                           	psect	text28,global,reloc=2,class=CODE,delta=1
    44                           	psect	text29,global,reloc=2,class=CODE,delta=1
    45                           	psect	text30,global,reloc=2,class=CODE,delta=1
    46                           	psect	text31,global,reloc=2,class=CODE,delta=1
    47                           	psect	text32,global,reloc=2,class=CODE,delta=1
    48                           	psect	text33,global,reloc=2,class=CODE,delta=1
    49                           	psect	text34,global,reloc=2,class=CODE,delta=1
    50                           	psect	text35,global,reloc=2,class=CODE,delta=1
    51                           	psect	text36,global,reloc=2,class=CODE,delta=1
    52                           	psect	text37,global,reloc=2,class=CODE,delta=1
    53                           	psect	text38,global,reloc=2,class=CODE,delta=1
    54                           	psect	text39,global,reloc=2,class=CODE,delta=1,group=2
    55                           	psect	text40,global,reloc=2,class=CODE,delta=1
    56                           	psect	text41,global,reloc=2,class=CODE,delta=1
    57                           	psect	text42,global,reloc=2,class=CODE,delta=1
    58                           	psect	text43,global,reloc=2,class=CODE,delta=1
    59                           	psect	text44,global,reloc=2,class=CODE,delta=1
    60                           	psect	text45,global,reloc=2,class=CODE,delta=1
    61                           	psect	text46,global,reloc=2,class=CODE,delta=1
    62                           	psect	text47,global,reloc=2,class=CODE,delta=1
    63                           	psect	text48,global,reloc=2,class=CODE,delta=1
    64                           	psect	text49,global,reloc=2,class=CODE,delta=1
    65                           	psect	text50,global,reloc=2,class=CODE,delta=1
    66                           	psect	text51,global,reloc=2,class=CODE,delta=1
    67                           	psect	text52,global,reloc=2,class=CODE,delta=1
    68                           	psect	ivt0x8,global,reloc=2,class=CODE,delta=1,noexec,keep,optim=
    69                           	psect	intsave_regs,global,class=BIGRAM,space=1,delta=1,noexec
    70                           	psect	text53,global,reloc=2,class=CODE,delta=1
    71                           	psect	rparam,global,class=COMRAM,space=1,delta=1,noexec
    72                           	psect	config,global,abs,ovrld,class=CONFIG,space=4,delta=1,noexec
    73   000000                     
    74                           ; Generated 18/12/2023 GMT
    75                           ; 
    76                           ; Copyright © 2023, Microchip Technology Inc. and its subsidiaries ("Microchip")
    77                           ; All rights reserved.
    78                           ; 
    79                           ; This software is developed by Microchip Technology Inc. and its subsidiaries ("Microch
      +                          ip").
    80                           ; 
    81                           ; Redistribution and use in source and binary forms, with or without modification, are
    82                           ; permitted provided that the following conditions are met:
    83                           ; 
    84                           ;     1. Redistributions of source code must retain the above copyright notice, this lis
      +                          t of
    85                           ;        conditions and the following disclaimer.
    86                           ; 
    87                           ;     2. Redistributions in binary form must reproduce the above copyright notice, this 
      +                          list
    88                           ;        of conditions and the following disclaimer in the documentation and/or other
    89                           ;        materials provided with the distribution. Publication is not required when
    90                           ;        this file is used in an embedded application.
    91                           ; 
    92                           ;     3. Microchip's name may not be used to endorse or promote products derived from th
      +                          is
    93                           ;        software without specific prior written permission.
    94                           ; 
    95                           ; THIS SOFTWARE IS PROVIDED BY MICROCHIP "AS IS" AND ANY EXPRESS OR IMPLIED WARRANTIES,
    96                           ; INCLUDING, BUT NOT LIMITED TO, THE IMPLIED WARRANTIES OF MERCHANTABILITY AND FITNESS F
      +                          OR
    97                           ; PURPOSE ARE DISCLAIMED.  IN NO EVENT SHALL MICROCHIP BE LIABLE FOR ANY DIRECT, INDIREC
      +                          T,
    98                           ; INCIDENTAL, SPECIAL, EXEMPLARY, OR CONSEQUENTIAL DAMAGES (INCLUDING BUT NOT LIMITED TO
    99                           ; PROCUREMENT OF SUBSTITUTE GOODS OR SERVICES; LOSS OF USE, DATA OR PROFITS; OR BUSINESS
   100                           ; INTERRUPTION) HOWSOEVER CAUSED AND ON ANY THEORY OF LIABILITY, WHETHER IN CONTRACT, ST
      +                          RICT
   101                           ; LIABILITY, OR TORT (INCLUDING NEGLIGENCE OR OTHERWISE) ARISING IN ANY WAY OUT OF THE U
      +                          SE OF
   102                           ; THIS SOFTWARE, EVEN IF ADVISED OF THE POSSIBILITY OF SUCH DAMAGE.
   103                           ; 
   104                           ; 
   105                           ; Code-generator required, PIC18F27Q84 Definitions
   106                           ; 
   107                           ; SFR Addresses
   108   000000                     
   109 ;; Function _CAN1_Deinitialize is unused but had its address taken
   110   000000                     
   111 ;; Function _CAN1_IsTxErrorPassive is unused but had its address taken
   112   000000                     
   113 ;; Function _CAN1_IsTxErrorWarning is unused but had its address taken
   114   000000                     
   115 ;; Function _CAN1_IsTxErrorActive is unused but had its address taken
   116   000000                     
   117 ;; Function _CAN1_ReceiveMessageGet is unused but had its address taken
   118   000000                     
   119 ;; Function _CAN1_ReceiveFIFOStatusGet is unused but had its address taken
   120   000000                     
   121 ;; Function _CAN1_IsRxErrorPassive is unused but had its address taken
   122   000000                     
   123 ;; Function _CAN1_IsRxErrorWarning is unused but had its address taken
   124   000000                     
   125 ;; Function _CAN1_IsRxErrorActive is unused but had its address taken
   126   000000                     
   127 ;; Function _CAN1_IsBusOff is unused but had its address taken
   128   000000                     
   129 ;; Function _CAN1_Sleep is unused but had its address taken
   130   000000                     
   131 ;; Function _CAN1_InvalidMessageCallbackRegister is unused but had its address taken
   132   000000                     
   133 ;; Function _CAN1_BusWakeUpActivityCallbackRegister is unused but had its address taken
   134   000000                     
   135 ;; Function _CAN1_BusErrorCallbackRegister is unused but had its address taken
   136   000000                     
   137 ;; Function _CAN1_ModeChangeCallbackRegister is unused but had its address taken
   138   000000                     
   139 ;; Function _CAN1_SystemErrorCallbackRegister is unused but had its address taken
   140   000000                     
   141 ;; Function _CAN1_TxAttemptCallbackRegister is unused but had its address taken
   142   000000                     
   143 ;; Function _CAN1_RxBufferOverFlowCallbackRegister is unused but had its address taken
   144   000000                     
   145 ;; Function _CAN1_Tasks is unused but had its address taken
   146   000000                     
   147 ;; Function _SPI2_BufferExchange is unused but had its address taken
   148   000000                     
   149 ;; Function _SPI2_BufferWrite is unused but had its address taken
   150   000000                     
   151 ;; Function _SPI2_BufferRead is unused but had its address taken
   152   000000                     
   153 ;; Function _SPI2_ByteWrite is unused but had its address taken
   154   000000                     
   155 ;; Function _SPI2_ByteRead is unused but had its address taken
   156   000000                     
   157 ;; Function _INT0_DefaultInterruptHandler is unused but had its address taken
   158   000000                     
   159 ;; Function _INT1_DefaultInterruptHandler is unused but had its address taken
   160   000000                     
   161 ;; Function _INT2_DefaultInterruptHandler is unused but had its address taken
   162   000000                     
   163 ;; Function _Timer0_Stop is unused but had its address taken
   164   000000                     
   165 ;; Function _Timer0_PeriodCountSet is unused but had its address taken
   166   000000                     
   167                           	psect	idataCOMRAM
   168   005B10                     __pidataCOMRAM:
   169                           	callstack 0
   170                           
   171                           ;initializer for _SoC
   172   005B10  13EC               	dw	5100
   173                           
   174                           ;initializer for _rxFIFOMsg
   175   005B12  01                 	db	1
   176   005B13  00                 	db	0
   177                           
   178                           ;initializer for _P1
   179   005B14  FF                 	db	255
   180                           
   181                           ;initializer for _P0
   182   005B15  FF                 	db	255
   183                           
   184                           	psect	idataBANK5
   185   005AC0                     __pidataBANK5:
   186                           	callstack 0
   187                           
   188                           ;initializer for _RxFrm
   189   005AC0  0000               	dw	0
   190   005AC2  0000               	dw	0
   191   005AC4  20                 	db	32
   192   005AC5  76                 	db	low _RxData
   193   005AC6  05                 	db	high _RxData
   194                           
   195                           ;initializer for _TxFrm
   196   005AC7  0291               	dw	657
   197   005AC9  0000               	dw	0
   198   005ACB  20                 	db	32
   199   005ACC  7E                 	db	low _TxData
   200   005ACD  05                 	db	high _TxData
   201                           
   202                           	psect	smallconst
   203   004000                     __psmallconst:
   204                           	callstack 0
   205   004000  00                 	db	0
   206   004001                     _CAN1:
   207                           	callstack 0
   208   004001  90                 	db	low _CAN1_Initialize
   209   004002  56                 	db	high _CAN1_Initialize
   210   004003  00                 	db	low (_CAN1_Initialize shr (0+16))
   211   004004  00                 	db	0
   212   004005  00                 	db	0
   213   004006  00                 	db	0
   214   004007  DC                 	db	low _CAN1_OperationModeSet
   215   004008  53                 	db	high _CAN1_OperationModeSet
   216   004009  00                 	db	low (_CAN1_OperationModeSet shr (0+16))
   217   00400A  06                 	db	low _CAN1_OperationModeGet
   218   00400B  5B                 	db	high _CAN1_OperationModeGet
   219   00400C  00                 	db	low (_CAN1_OperationModeGet shr (0+16))
   220   00400D  DE                 	db	low _CAN1_Transmit
   221   00400E  54                 	db	high _CAN1_Transmit
   222   00400F  00                 	db	low (_CAN1_Transmit shr (0+16))
   223   004010  20                 	db	low _CAN1_TransmitFIFOStatusGet
   224   004011  59                 	db	high _CAN1_TransmitFIFOStatusGet
   225   004012  00                 	db	low (_CAN1_TransmitFIFOStatusGet shr (0+16))
   226   004013  00                 	db	0
   227   004014  00                 	db	0
   228   004015  00                 	db	0
   229   004016  00                 	db	0
   230   004017  00                 	db	0
   231   004018  00                 	db	0
   232   004019  00                 	db	0
   233   00401A  00                 	db	0
   234   00401B  00                 	db	0
   235   00401C  E4                 	db	low _CAN1_Receive
   236   00401D  56                 	db	high _CAN1_Receive
   237   00401E  00                 	db	low (_CAN1_Receive shr (0+16))
   238   00401F  00                 	db	0
   239   004020  00                 	db	0
   240   004021  00                 	db	0
   241   004022  AA                 	db	low _CAN1_ReceivedMessageCountGet
   242   004023  4E                 	db	high _CAN1_ReceivedMessageCountGet
   243   004024  00                 	db	low (_CAN1_ReceivedMessageCountGet shr (0+16))
   244   004025  00                 	db	0
   245   004026  00                 	db	0
   246   004027  00                 	db	0
   247   004028  00                 	db	0
   248   004029  00                 	db	0
   249   00402A  00                 	db	0
   250   00402B  00                 	db	0
   251   00402C  00                 	db	0
   252   00402D  00                 	db	0
   253   00402E  00                 	db	0
   254   00402F  00                 	db	0
   255   004030  00                 	db	0
   256   004031  00                 	db	0
   257   004032  00                 	db	0
   258   004033  00                 	db	0
   259   004034  00                 	db	0
   260   004035  00                 	db	0
   261   004036  00                 	db	0
   262   004037  00                 	db	0
   263   004038  00                 	db	0
   264   004039  00                 	db	0
   265   00403A  00                 	db	0
   266   00403B  00                 	db	0
   267   00403C  00                 	db	0
   268   00403D  00                 	db	0
   269   00403E  00                 	db	0
   270   00403F  00                 	db	0
   271   004040  00                 	db	0
   272   004041  00                 	db	0
   273   004042  00                 	db	0
   274   004043  00                 	db	0
   275   004044  00                 	db	0
   276   004045  00                 	db	0
   277   004046  00                 	db	0
   278   004047  00                 	db	0
   279   004048  00                 	db	0
   280   004049  00                 	db	0
   281   00404A  00                 	db	0
   282   00404B  00                 	db	0
   283   00404C  00                 	db	0
   284   00404D  00                 	db	0
   285   00404E  00                 	db	0
   286   00404F                     __end_of_CAN1:
   287                           	callstack 0
   288   00404F                     _SPI2:
   289                           	callstack 0
   290   00404F  E6                 	db	low _SPI2_Initialize
   291   004050  59                 	db	high _SPI2_Initialize
   292   004051  00                 	db	low (_SPI2_Initialize shr (0+16))
   293   004052  16                 	db	low _SPI2_Close
   294   004053  5B                 	db	high _SPI2_Close
   295   004054  00                 	db	low (_SPI2_Close shr (0+16))
   296   004055  9C                 	db	low _SPI2_Open
   297   004056  51                 	db	high _SPI2_Open
   298   004057  00                 	db	low (_SPI2_Open shr (0+16))
   299   004058  00                 	db	0
   300   004059  00                 	db	0
   301   00405A  00                 	db	0
   302   00405B  00                 	db	0
   303   00405C  00                 	db	0
   304   00405D  00                 	db	0
   305   00405E  00                 	db	0
   306   00405F  00                 	db	0
   307   004060  00                 	db	0
   308   004061  8C                 	db	low _SPI2_ByteExchange
   309   004062  59                 	db	high _SPI2_ByteExchange
   310   004063  00                 	db	low (_SPI2_ByteExchange shr (0+16))
   311   004064  00                 	db	0
   312   004065  00                 	db	0
   313   004066  00                 	db	0
   314   004067  00                 	db	0
   315   004068  00                 	db	0
   316   004069  00                 	db	0
   317   00406A                     __end_of_SPI2:
   318                           	callstack 0
   319   00406A                     _Timer0:
   320                           	callstack 0
   321   00406A  40                 	db	low _Timer0_Initialize
   322   00406B  58                 	db	high _Timer0_Initialize
   323   00406C  00                 	db	low (_Timer0_Initialize shr (0+16))
   324   00406D  1C                 	db	low _Timer0_Start
   325   00406E  5B                 	db	high _Timer0_Start
   326   00406F  00                 	db	low (_Timer0_Start shr (0+16))
   327   004070  00                 	db	0
   328   004071  00                 	db	0
   329   004072  00                 	db	0
   330   004073  00                 	db	0
   331   004074  00                 	db	0
   332   004075  00                 	db	0
   333   004076  CE                 	db	low _Timer0_OverflowCallbackRegister
   334   004077  5A                 	db	high _Timer0_OverflowCallbackRegister
   335   004078  00                 	db	low (_Timer0_OverflowCallbackRegister shr (0+16))
   336   004079  00                 	db	0
   337   00407A  00                 	db	0
   338   00407B  00                 	db	0
   339   00407C                     __end_of_Timer0:
   340                           	callstack 0
   341   00407C                     CAN1_DlcToDataBytesGet@dlcByteSize:
   342                           	callstack 0
   343   00407C  00                 	db	0
   344   00407D  01                 	db	1
   345   00407E  02                 	db	2
   346   00407F  03                 	db	3
   347   004080  04                 	db	4
   348   004081  05                 	db	5
   349   004082  06                 	db	6
   350   004083  07                 	db	7
   351   004084  08                 	db	8
   352   004085                     __end_ofCAN1_DlcToDataBytesGet@dlcByteSize:
   353                           	callstack 0
   354   004085                     _spi2_configuration:
   355                           	callstack 0
   356   004085  02                 	db	2
   357   004086  40                 	db	64
   358   004087  00                 	db	0
   359   004088  3F                 	db	63
   360   004089  00                 	db	0
   361   00408A                     __end_of_spi2_configuration:
   362                           	callstack 0
   363   00408A  50                 	db	80
   364   00408B  01                 	db	1
   365   00408C                     __end_of_FIFO:
   366                           	callstack 0
   367   000000                     _T0CON0	set	794
   368   000000                     _T0CON1	set	795
   369   000000                     _OSCTUNE	set	176
   370   000000                     _OSCFRQ	set	177
   371   000000                     _OSCEN	set	179
   372   000000                     _IOCBF	set	1039
   373   000000                     _IOCBN	set	1038
   374   000000                     _IOCBP	set	1037
   375   000000                     _IOCAF	set	1031
   376   000000                     _IOCAN	set	1030
   377   000000                     _IOCAP	set	1029
   378   000000                     _INLVLB	set	1036
   379   000000                     _INLVLA	set	1028
   380   000000                     _SLRCONB	set	1035
   381   000000                     _SLRCONA	set	1027
   382   000000                     _ODCONB	set	1034
   383   000000                     _ODCONA	set	1026
   384   000000                     _WPUB	set	1033
   385   000000                     _WPUA	set	1025
   386   000000                     _ANSELC	set	1040
   387   000000                     _ANSELB	set	1032
   388   000000                     _C1CONU	set	258
   389   000000                     _C1CONT	set	259
   390   000000                     _SPI2CON0bits	set	145
   391   000000                     _C1CONTbits	set	259
   392   000000                     _C1CONUbits	set	258
   393   000000                     _C1CONH	set	257
   394   000000                     _T0CON0bits	set	794
   395   000000                     _LATAbits	set	1214
   396   000000                     _TRISB	set	1223
   397   000000                     _PMD0	set	96
   398   000000                     _SPI2RXB	set	141
   399   000000                     _SPI2TXB	set	142
   400   000000                     _SPI2TCNTL	set	143
   401   000000                     _SPI2CON0	set	145
   402   000000                     _SPI2CON1	set	146
   403   000000                     _C1CONL	set	256
   404   000000                     _C1CONHbits	set	257
   405   000000                     _C1NBTCFGL	set	260
   406   000000                     _C1TXQCONL	set	336
   407   000000                     _C1TXQSTALbits	set	340
   408   000000                     _C1FIFOCON1L	set	348
   409   000000                     _C1TXQCONT	set	339
   410   000000                     _C1TXQCONU	set	338
   411   000000                     _C1TXQCONH	set	337
   412   000000                     _C1FIFOSTA1Lbits	set	352
   413   000000                     _C1FLTCON0Lbits	set	384
   414   000000                     _C1FIFOCON1T	set	351
   415   000000                     _C1FIFOCON1U	set	350
   416   000000                     _C1FIFOCON1H	set	349
   417   000000                     _C1FLTOBJ0L	set	396
   418   000000                     _RB1PPS	set	522
   419   000000                     _RC0PPS	set	529
   420   000000                     _CANRXPPS	set	573
   421   000000                     _SPI2SDIPPS	set	622
   422   000000                     _RC4I2C	set	646
   423   000000                     _RC3I2C	set	647
   424   000000                     _RB2I2C	set	648
   425   000000                     _RB1I2C	set	649
   426   000000                     _ANSELA	set	1024
   427   000000                     _PIE0bits	set	1182
   428   000000                     _C1MASK0T	set	403
   429   000000                     _C1MASK0U	set	402
   430   000000                     _C1MASK0H	set	401
   431   000000                     _C1MASK0L	set	400
   432   000000                     _C1FLTOBJ0T	set	399
   433   000000                     _C1FLTOBJ0U	set	398
   434   000000                     _C1FLTOBJ0H	set	397
   435   000000                     _C1INTLbits	set	284
   436   000000                     _C1INTHbits	set	285
   437   000000                     _C1FIFOBAL	set	332
   438   000000                     _C1NBTCFGT	set	263
   439   000000                     _C1NBTCFGU	set	262
   440   000000                     _C1NBTCFGH	set	261
   441   000000                     _C1FIFOBAH	set	333
   442   000000                     _C1INTTbits	set	287
   443   000000                     _C1TRECLbits	set	308
   444   000000                     _C1TRECHbits	set	309
   445   000000                     _C1TRECUbits	set	310
   446   000000                     _PIE3bits	set	1185
   447   000000                     _PIR0bits	set	1198
   448   000000                     _PIR3bits	set	1201
   449   000000                     _PIR1bits	set	1199
   450   000000                     _PIR5bits	set	1203
   451   000000                     _TRISBbits	set	1223
   452   000000                     _SPI2BAUD	set	150
   453   000000                     _SPI2CLK	set	153
   454   000000                     _SPI2CON2	set	147
   455   000000                     _ACTCON	set	172
   456   000000                     _OSCCON1	set	173
   457   000000                     _TRISE	set	1226
   458   000000                     _TRISC	set	1224
   459   000000                     _INTCON0bits	set	1238
   460   000000                     _PIR10bits	set	1208
   461   000000                     _PIR6bits	set	1204
   462   000000                     _PCON0	set	1264
   463   000000                     _LATA	set	1214
   464   000000                     _TRISA	set	1222
   465   000000                     _LATC	set	1216
   466   000000                     _LATB	set	1215
   467   000000                     _IOCCF	set	1047
   468   000000                     _IOCCN	set	1046
   469   000000                     _IOCCP	set	1045
   470   000000                     _INLVLC	set	1044
   471   000000                     _SLRCONC	set	1043
   472   000000                     _ODCONC	set	1042
   473   000000                     _WPUE	set	1057
   474   000000                     _WPUC	set	1041
   475   000000                     _INLVLE	set	1060
   476   000000                     _TMR0L	set	792
   477   000000                     _TMR0H	set	793
   478   000000                     _FSCMCON	set	1112
   479   000000                     _IOCEF	set	1063
   480   000000                     _IOCEN	set	1062
   481   000000                     _IOCEP	set	1061
   482   000000                     _SPI2SCKPPS	set	621
   483   000000                     _RB3PPS	set	524
   484   000000                     _WDTCON0	set	120
   485   000000                     _PMD8	set	104
   486   000000                     _PMD7	set	103
   487   000000                     _PMD6	set	102
   488   000000                     _PMD5	set	101
   489   000000                     _PMD4	set	100
   490   000000                     _PMD3	set	99
   491   000000                     _PMD2	set	98
   492   000000                     _PMD1	set	97
   493   000000                     _OSCCON3	set	175
   494   000000                     _WDTCON1	set	121
   495   00408C  00                 	db	0	; dummy byte at the end
   496   000000                     
   497                           ; #config settings
   498                           
   499                           	psect	cinit
   500   005554                     __pcinit:
   501                           	callstack 0
   502   005554                     start_initialization:
   503                           	callstack 0
   504   005554                     __initialization:
   505                           	callstack 0
   506                           
   507                           ; Initialize objects allocated to BANK5 (14 bytes)
   508                           ; load TBLPTR registers with __pidataBANK5
   509   005554  0EC0               	movlw	low __pidataBANK5
   510   005556  6EF6               	movwf	tblptrl,c
   511   005558  0E5A               	movlw	high __pidataBANK5
   512   00555A  6EF7               	movwf	tblptrh,c
   513   00555C  0E00               	movlw	low (__pidataBANK5 shr (0+16))
   514   00555E  6EF8               	movwf	tblptru,c
   515   005560  EE01  F18E         	lfsr	0,__pdataBANK5
   516   005564  EE10 F00E          	lfsr	1,14
   517   005568                     copy_data0:
   518   005568  0009               	tblrd		*+
   519   00556A  C4F5 F4EE          	movff	tablat,postinc0
   520   00556E  50E5               	movf	postdec1,w,c
   521   005570  50E1               	movf	fsr1l,w,c
   522   005572  E1FA               	bnz	copy_data0
   523                           
   524                           ; Initialize objects allocated to COMRAM (6 bytes)
   525                           ; load TBLPTR registers with __pidataCOMRAM
   526   005574  0E10               	movlw	low __pidataCOMRAM
   527   005576  6EF6               	movwf	tblptrl,c
   528   005578  0E5B               	movlw	high __pidataCOMRAM
   529   00557A  6EF7               	movwf	tblptrh,c
   530   00557C  0E00               	movlw	low (__pidataCOMRAM shr (0+16))
   531   00557E  6EF8               	movwf	tblptru,c
   532   005580  EE01  F158         	lfsr	0,__pdataCOMRAM
   533   005584  EE10 F006          	lfsr	1,6
   534   005588                     copy_data1:
   535   005588  0009               	tblrd		*+
   536   00558A  C4F5 F4EE          	movff	tablat,postinc0
   537   00558E  50E5               	movf	postdec1,w,c
   538   005590  50E1               	movf	fsr1l,w,c
   539   005592  E1FA               	bnz	copy_data1
   540                           
   541                           ; Clear objects allocated to BANK5 (46 bytes)
   542   005594  EE01  F160         	lfsr	0,__pbssBANK5
   543   005598  0E2E               	movlw	46
   544   00559A                     clear_0:
   545   00559A  6AEE               	clrf	postinc0,c
   546   00559C  06E8               	decf	wreg,f,c
   547   00559E  E1FD               	bnz	clear_0
   548                           
   549                           ; Clear objects allocated to COMRAM (25 bytes)
   550   0055A0  EE01  F13F         	lfsr	0,__pbssCOMRAM
   551   0055A4  0E19               	movlw	25
   552   0055A6                     clear_1:
   553   0055A6  6AEE               	clrf	postinc0,c
   554   0055A8  06E8               	decf	wreg,f,c
   555   0055AA  E1FD               	bnz	clear_1
   556                           
   557                           ;
   558                           ; Setup IVTBASE
   559                           ;
   560   0055AC  0104               	movlb	4
   561   0055AE  0E08               	movlw	(ivt0x8_base shr 0)& (0+255)
   562   0055B0  6F5D               	movwf	93,b
   563   0055B2  0E00               	movlw	(ivt0x8_base shr (0+8))& (0+255)
   564   0055B4  6F5E               	movwf	94,b
   565   0055B6  0E00               	movlw	(ivt0x8_base shr (0+16))& (0+255)
   566   0055B8  6F5F               	movwf	95,b
   567   0055BA                     end_of_initialization:
   568                           	callstack 0
   569   0055BA                     __end_of__initialization:
   570                           	callstack 0
   571   0055BA  0100               	movlb	0
   572   0055BC  EF67  F025         	goto	_main	;jump to C main() function
   573                           
   574                           	psect	bssCOMRAM
   575   00053F                     __pbssCOMRAM:
   576                           	callstack 0
   577   00053F                     _Timer0_OverflowCallback:
   578                           	callstack 0
   579   00053F                     	ds	3
   580   000542                     _INT2_InterruptHandler:
   581                           	callstack 0
   582   000542                     	ds	3
   583   000545                     _INT1_InterruptHandler:
   584                           	callstack 0
   585   000545                     	ds	3
   586   000548                     _INT0_InterruptHandler:
   587                           	callstack 0
   588   000548                     	ds	3
   589   00054B                     _CAN1_InvalidMessageHandler:
   590                           	callstack 0
   591   00054B                     	ds	3
   592   00054E                     _timerTMR0ReloadVal16bit:
   593                           	callstack 0
   594   00054E                     	ds	2
   595   000550                     _TiOutTmr:
   596                           	callstack 0
   597   000550                     	ds	4
   598   000554                     _Tmr:
   599                           	callstack 0
   600   000554                     	ds	4
   601                           
   602                           	psect	dataCOMRAM
   603   000558                     __pdataCOMRAM:
   604                           	callstack 0
   605   000558                     _SoC:
   606                           	callstack 0
   607   000558                     	ds	2
   608   00055A                     _rxFIFOMsg:
   609                           	callstack 0
   610   00055A                     	ds	2
   611   00055C                     _P1:
   612                           	callstack 0
   613   00055C                     	ds	1
   614   00055D                     _P0:
   615                           	callstack 0
   616   00055D                     	ds	1
   617                           
   618                           	psect	bssBANK5
   619   000560                     __pbssBANK5:
   620                           	callstack 0
   621   000560                     ___INTERNAL_TIMER__:
   622                           	callstack 0
   623   000560                     	ds	4
   624   000564                     _CAN1_RxBufferOverFlowHandler:
   625                           	callstack 0
   626   000564                     	ds	3
   627   000567                     _CAN1_TxAttemptHandler:
   628                           	callstack 0
   629   000567                     	ds	3
   630   00056A                     _CAN1_SystemErrorHandler:
   631                           	callstack 0
   632   00056A                     	ds	3
   633   00056D                     _CAN1_ModeChangeHandler:
   634                           	callstack 0
   635   00056D                     	ds	3
   636   000570                     _CAN1_BusErrorHandler:
   637                           	callstack 0
   638   000570                     	ds	3
   639   000573                     _CAN1_BusWakeUpActivityHandler:
   640                           	callstack 0
   641   000573                     	ds	3
   642   000576                     _RxData:
   643                           	callstack 0
   644   000576                     	ds	8
   645   00057E                     _TxData:
   646                           	callstack 0
   647   00057E                     	ds	8
   648   000586                     _rxMsgData:
   649                           	callstack 0
   650   000586                     	ds	8
   651                           
   652                           	psect	dataBANK5
   653   00058E                     __pdataBANK5:
   654                           	callstack 0
   655   00058E                     _RxFrm:
   656                           	callstack 0
   657   00058E                     	ds	7
   658   000595                     _TxFrm:
   659                           	callstack 0
   660   000595                     	ds	7
   661                           
   662                           	psect	cstackBANK5
   663   00059C                     __pcstackBANK5:
   664                           	callstack 0
   665   00059C                     main@SoC_raw:
   666                           	callstack 0
   667                           
   668                           ; 2 bytes @ 0x0
   669   00059C                     	ds	2
   670                           
   671                           	psect	cstackCOMRAM
   672   000501                     __pcstackCOMRAM:
   673                           	callstack 0
   674   000501                     ??_INTERRUPT_InterruptManager:
   675   000501                     
   676                           ; 1 bytes @ 0x0
   677   000501                     	ds	2
   678   000503                     ??_SPI2_Open:
   679   000503                     ??_CAN1_GetRxFifoDepth:
   680   000503                     ?_IO_RTC_GetTimeUS:
   681                           	callstack 0
   682   000503                     ?___lmul:
   683                           	callstack 0
   684   000503                     CAN1_DlcToDataBytesGet@dlc:
   685                           	callstack 0
   686   000503                     _CAN1_IsTxChannel$797:
   687                           	callstack 0
   688   000503                     CAN1_GetTxFifoStatus@validChannel:
   689                           	callstack 0
   690   000503                     CAN1_RX_FIFO_ResetInfo@count:
   691                           	callstack 0
   692   000503                     CAN1_GetRxFifoStatus@validChannel:
   693                           	callstack 0
   694   000503                     CAN1_OperationModeSet@status:
   695                           	callstack 0
   696   000503                     SPI2_ByteExchange@data:
   697                           	callstack 0
   698   000503                     IO_RTC_StartTime@ptr:
   699                           	callstack 0
   700   000503                     calculate_P@p0:
   701                           	callstack 0
   702   000503                     INT0_SetInterruptHandler@InterruptHandler:
   703                           	callstack 0
   704   000503                     INT1_SetInterruptHandler@InterruptHandler:
   705                           	callstack 0
   706   000503                     INT2_SetInterruptHandler@InterruptHandler:
   707                           	callstack 0
   708   000503                     Timer0_OverflowCallbackRegister@CallbackHandler:
   709                           	callstack 0
   710   000503                     IO_RTC_GetTimeUS@tmr:
   711                           	callstack 0
   712   000503                     ___lmul@multiplier:
   713                           	callstack 0
   714                           
   715                           ; 4 bytes @ 0x2
   716   000503                     	ds	1
   717   000504                     CAN1_IsTxChannel@channel:
   718                           	callstack 0
   719   000504                     CAN1_GetRxFifoDepth@validChannel:
   720                           	callstack 0
   721   000504                     CAN1_OperationModeSet@requestMode:
   722                           	callstack 0
   723   000504                     SPI2_Open@spiConfigIndex:
   724                           	callstack 0
   725   000504                     CAN1_MessageReadFromFifo@rxFifoObj:
   726                           	callstack 0
   727   000504                     memcpy@d1:
   728                           	callstack 0
   729                           
   730                           ; 2 bytes @ 0x3
   731   000504                     	ds	1
   732   000505                     ??_CAN1_ReceivedMessageCountGet:
   733   000505                     ??_setup_Poti:
   734   000505                     CAN1_TransmitFIFOStatusGet@status:
   735                           	callstack 0
   736   000505                     transmit_P@p1:
   737                           	callstack 0
   738   000505                     calculate_P@p1:
   739                           	callstack 0
   740                           
   741                           ; 2 bytes @ 0x4
   742   000505                     	ds	1
   743   000506                     ??_Timer0_Initialize:
   744   000506                     ??_transmit_P:
   745   000506                     CAN1_TransmitFIFOStatusGet@fifoChannel:
   746                           	callstack 0
   747   000506                     CAN1_ReceivedMessageCountGet@totalMsgObj:
   748                           	callstack 0
   749   000506                     CAN1_MessageReadFromFifo@rxCanMsg:
   750                           	callstack 0
   751   000506                     memcpy@s1:
   752                           	callstack 0
   753                           
   754                           ; 2 bytes @ 0x5
   755   000506                     	ds	1
   756   000507                     CAN1_ReceivedMessageCountGet@rxMsgStatus:
   757                           	callstack 0
   758   000507                     transmit_P@p0:
   759                           	callstack 0
   760   000507                     CAN1_ValidateTransmission@txCanMsg:
   761                           	callstack 0
   762   000507                     calculate_P@percent:
   763                           	callstack 0
   764   000507                     ___lmul@multiplicand:
   765                           	callstack 0
   766                           
   767                           ; 4 bytes @ 0x6
   768   000507                     	ds	1
   769   000508                     ??_CAN1_MessageReadFromFifo:
   770   000508                     CAN1_ReceivedMessageCountGet@numOfMsg:
   771                           	callstack 0
   772   000508                     memcpy@n:
   773                           	callstack 0
   774                           
   775                           ; 2 bytes @ 0x7
   776   000508                     	ds	1
   777   000509                     ??_CAN1_ValidateTransmission:
   778   000509                     CAN1_ReceivedMessageCountGet@fifoChannel:
   779                           	callstack 0
   780                           
   781                           ; 1 bytes @ 0x8
   782   000509                     	ds	1
   783   00050A                     CAN1_ValidateTransmission@channel:
   784                           	callstack 0
   785   00050A                     CAN1_ReceivedMessageCountGet@fifoDepth:
   786                           	callstack 0
   787   00050A                     memcpy@tmp:
   788                           	callstack 0
   789   00050A                     CAN1_MessageReadFromFifo@msgId:
   790                           	callstack 0
   791                           
   792                           ; 4 bytes @ 0x9
   793   00050A                     	ds	1
   794   00050B                     CAN1_ValidateTransmission@txMsgStatus:
   795                           	callstack 0
   796   00050B                     CAN1_ReceivedMessageCountGet@rxfifoMsgTail:
   797                           	callstack 0
   798   00050B                     memcpy@d:
   799                           	callstack 0
   800   00050B                     ___lmul@product:
   801                           	callstack 0
   802                           
   803                           ; 4 bytes @ 0xA
   804   00050B                     	ds	1
   805   00050C                     CAN1_ReceivedMessageCountGet@index:
   806                           	callstack 0
   807                           
   808                           ; 1 bytes @ 0xB
   809   00050C                     	ds	1
   810   00050D                     memcpy@s:
   811                           	callstack 0
   812                           
   813                           ; 2 bytes @ 0xC
   814   00050D                     	ds	1
   815   00050E                     CAN1_MessageReadFromFifo@index:
   816                           	callstack 0
   817                           
   818                           ; 1 bytes @ 0xD
   819   00050E                     	ds	1
   820   00050F                     ?___lldiv:
   821                           	callstack 0
   822   00050F                     CAN1_ReceiveFromFiFo@channel:
   823                           	callstack 0
   824   00050F                     CAN1_MessageWriteToFifo@txFifoObj:
   825                           	callstack 0
   826   00050F                     ___lldiv@dividend:
   827                           	callstack 0
   828                           
   829                           ; 4 bytes @ 0xE
   830   00050F                     	ds	1
   831   000510                     CAN1_ReceiveFromFiFo@rxCanMsg:
   832                           	callstack 0
   833                           
   834                           ; 2 bytes @ 0xF
   835   000510                     	ds	1
   836   000511                     CAN1_MessageWriteToFifo@txCanMsg:
   837                           	callstack 0
   838                           
   839                           ; 2 bytes @ 0x10
   840   000511                     	ds	1
   841   000512                     ??_CAN1_ReceiveFromFiFo:
   842                           
   843                           ; 1 bytes @ 0x11
   844   000512                     	ds	1
   845   000513                     ??_CAN1_MessageWriteToFifo:
   846   000513                     ___lldiv@divisor:
   847                           	callstack 0
   848                           
   849                           ; 4 bytes @ 0x12
   850   000513                     	ds	1
   851   000514                     CAN1_ReceiveFromFiFo@status:
   852                           	callstack 0
   853                           
   854                           ; 1 bytes @ 0x13
   855   000514                     	ds	1
   856   000515                     CAN1_ReceiveFromFiFo@rxFifoObj:
   857                           	callstack 0
   858                           
   859                           ; 2 bytes @ 0x14
   860   000515                     	ds	2
   861   000517                     CAN1_ReceiveFromFiFo@rxMsgStatus:
   862                           	callstack 0
   863   000517                     ___lldiv@quotient:
   864                           	callstack 0
   865                           
   866                           ; 4 bytes @ 0x16
   867   000517                     	ds	1
   868   000518                     CAN1_ReceiveFromFiFo@index:
   869                           	callstack 0
   870   000518                     CAN1_MessageWriteToFifo@msgId:
   871                           	callstack 0
   872                           
   873                           ; 4 bytes @ 0x17
   874   000518                     	ds	1
   875   000519                     CAN1_Receive@rxCanMsg:
   876                           	callstack 0
   877                           
   878                           ; 2 bytes @ 0x18
   879   000519                     	ds	2
   880   00051B                     CAN1_Receive@status:
   881                           	callstack 0
   882   00051B                     ___lldiv@counter:
   883                           	callstack 0
   884                           
   885                           ; 1 bytes @ 0x1A
   886   00051B                     	ds	1
   887   00051C                     ?_linear_map:
   888                           	callstack 0
   889   00051C                     CAN1_Receive@index:
   890                           	callstack 0
   891   00051C                     CAN1_Transmit@txCanMsg:
   892                           	callstack 0
   893   00051C                     linear_map@a:
   894                           	callstack 0
   895                           
   896                           ; 2 bytes @ 0x1B
   897   00051C                     	ds	2
   898   00051E                     CAN1_Transmit@status:
   899                           	callstack 0
   900   00051E                     linear_map@b:
   901                           	callstack 0
   902                           
   903                           ; 2 bytes @ 0x1D
   904   00051E                     	ds	1
   905   00051F                     CAN1_Transmit@txFifoObj:
   906                           	callstack 0
   907                           
   908                           ; 2 bytes @ 0x1E
   909   00051F                     	ds	1
   910   000520                     linear_map@x:
   911                           	callstack 0
   912                           
   913                           ; 2 bytes @ 0x1F
   914   000520                     	ds	1
   915   000521                     CAN1_Transmit@fifoChannel:
   916                           	callstack 0
   917                           
   918                           ; 1 bytes @ 0x20
   919   000521                     	ds	1
   920   000522                     linear_map@y:
   921                           	callstack 0
   922                           
   923                           ; 2 bytes @ 0x21
   924   000522                     	ds	2
   925   000524                     linear_map@value:
   926                           	callstack 0
   927                           
   928                           ; 2 bytes @ 0x23
   929   000524                     	ds	2
   930   000526                     linear_map@B:
   931                           	callstack 0
   932                           
   933                           ; 4 bytes @ 0x25
   934   000526                     	ds	4
   935   00052A                     linear_map@Y:
   936                           	callstack 0
   937                           
   938                           ; 4 bytes @ 0x29
   939   00052A                     	ds	4
   940   00052E                     linear_map@V:
   941                           	callstack 0
   942                           
   943                           ; 4 bytes @ 0x2D
   944   00052E                     	ds	4
   945   000532                     linear_map@ret:
   946                           	callstack 0
   947                           
   948                           ; 4 bytes @ 0x31
   949   000532                     	ds	4
   950   000536                     linear_map@A:
   951                           	callstack 0
   952                           
   953                           ; 4 bytes @ 0x35
   954   000536                     	ds	4
   955   00053A                     linear_map@X:
   956                           	callstack 0
   957                           
   958                           ; 4 bytes @ 0x39
   959   00053A                     	ds	4
   960   00053E                     ??_main:
   961                           
   962                           ; 1 bytes @ 0x3D
   963   00053E                     	ds	1
   964                           
   965 ;;
   966 ;;Main: autosize = 0, tempsize = 1, incstack = 0, save=0
   967 ;;
   968 ;; *************** function _main *****************
   969 ;; Defined at:
   970 ;;		line 252 in file "main.c"
   971 ;; Parameters:    Size  Location     Type
   972 ;;		None
   973 ;; Auto vars:     Size  Location     Type
   974 ;;  SoC_raw         2    0[BANK5 ] unsigned short 
   975 ;; Return value:  Size  Location     Type
   976 ;;                  1    wreg      void 
   977 ;; Registers used:
   978 ;;		wreg, fsr1l, fsr1h, fsr2l, fsr2h, status,2, status,0, pcl, pclath, pclatu, tosl, tblptrl, tblptrh, tblptru, prodl, p
      +rodh, cstack
   979 ;; Tracked objects:
   980 ;;		On entry : 0/0
   981 ;;		On exit  : 0/0
   982 ;;		Unchanged: 0/0
   983 ;; Data sizes:     COMRAM   BANK5   BANK6   BANK7   BANK8   BANK9  BANK10  BANK11  BANK12  BANK13  BANK14  BANK15  BANK1
      +6  BANK17  BANK18  BANK19  BANK20  BANK21  BANK22  BANK23  BANK24  BANK25  BANK26  BANK27  BANK28  BANK29  BANK30  BANK3
      +1  BANK32  BANK33  BANK34  BANK35  BANK36  BANK37  BANK38  BANK39  BANK40  BANK41  BANK42  BANK43  BANK44  BANK45  BANK4
      +6  BANK47  BANK48  BANK49  BANK50  BANK51  BANK52  BANK53  BANK54
   984 ;;      Params:         0       0       0       0       0       0       0       0       0       0       0       0       
      +0       0       0       0       0       0       0       0       0       0       0       0       0       0       0       
      +0       0       0       0       0       0       0       0       0       0       0       0       0       0       0       
      +0       0       0       0       0       0       0       0       0
   985 ;;      Locals:         0       2       0       0       0       0       0       0       0       0       0       0       
      +0       0       0       0       0       0       0       0       0       0       0       0       0       0       0       
      +0       0       0       0       0       0       0       0       0       0       0       0       0       0       0       
      +0       0       0       0       0       0       0       0       0
   986 ;;      Temps:          1       0       0       0       0       0       0       0       0       0       0       0       
      +0       0       0       0       0       0       0       0       0       0       0       0       0       0       0       
      +0       0       0       0       0       0       0       0       0       0       0       0       0       0       0       
      +0       0       0       0       0       0       0       0       0
   987 ;;      Totals:         1       2       0       0       0       0       0       0       0       0       0       0       
      +0       0       0       0       0       0       0       0       0       0       0       0       0       0       0       
      +0       0       0       0       0       0       0       0       0       0       0       0       0       0       0       
      +0       0       0       0       0       0       0       0       0
   988 ;;Total ram usage:        3 bytes
   989 ;; Hardware stack levels required when called: 7
   990 ;; This function calls:
   991 ;;		_CAN1_OperationModeSet
   992 ;;		_CAN1_Receive
   993 ;;		_CAN1_ReceivedMessageCountGet
   994 ;;		_CAN1_Transmit
   995 ;;		_IO_RTC_GetTimeUS
   996 ;;		_IO_RTC_StartTime
   997 ;;		_SYSTEM_Initialize
   998 ;;		_Timer0_OverflowCallbackRegister
   999 ;;		_Timer0_Start
  1000 ;;		_calculate_P
  1001 ;;		_linear_map
  1002 ;;		_setup_Poti
  1003 ;;		_transmit_P
  1004 ;; This function is called by:
  1005 ;;		Startup code after reset
  1006 ;; This function uses a non-reentrant model
  1007 ;;
  1008                           
  1009                           	psect	text0
  1010   004ACE                     __ptext0:
  1011                           	callstack 0
  1012   004ACE                     _main:
  1013                           	callstack 120
  1014   004ACE                     
  1015                           ;main.c: 253:     SYSTEM_Initialize();
  1016   004ACE  ECA4  F02C         	call	_SYSTEM_Initialize	;wreg free
  1017   004AD2                     
  1018                           ;main.c: 254:     CAN1_OperationModeSet(CAN_NORMAL_2_0_MODE);
  1019   004AD2  0E06               	movlw	6
  1020   004AD4  ECEE  F029         	call	_CAN1_OperationModeSet
  1021   004AD8                     
  1022                           ;main.c: 255:     Timer0_OverflowCallbackRegister(&UpdateTmr);
  1023   004AD8  0E9C               	movlw	low _UpdateTmr
  1024   004ADA  6E03               	movwf	Timer0_OverflowCallbackRegister@CallbackHandler^(0+1280),c
  1025   004ADC  0E5A               	movlw	high _UpdateTmr
  1026   004ADE  6E04               	movwf	(Timer0_OverflowCallbackRegister@CallbackHandler+1)^(0+1280),c
  1027   004AE0  0E00               	movlw	low (_UpdateTmr shr (0+16))
  1028   004AE2  6E05               	movwf	(Timer0_OverflowCallbackRegister@CallbackHandler+2)^(0+1280),c
  1029   004AE4  EC67  F02D         	call	_Timer0_OverflowCallbackRegister	;wreg free
  1030   004AE8                     
  1031                           ;main.c: 256:     Timer0_Start();
  1032   004AE8  EC8E  F02D         	call	_Timer0_Start	;wreg free
  1033   004AEC                     
  1034                           ;main.c: 257:     (INTCON0bits.GIE = 1);
  1035   004AEC  8ED6               	bsf	214,7,c	;volatile
  1036   004AEE                     
  1037                           ;main.c: 260:     setup_Poti();
  1038   004AEE  ECBE  F021         	call	_setup_Poti	;wreg free
  1039   004AF2                     l3990:
  1040                           
  1041                           ;main.c: 262:         IO_RTC_StartTime(&Tmr);
  1042   004AF2  0E54               	movlw	low _Tmr
  1043   004AF4  6E03               	movwf	IO_RTC_StartTime@ptr^(0+1280),c
  1044   004AF6  0E05               	movlw	high _Tmr
  1045   004AF8  6E04               	movwf	(IO_RTC_StartTime@ptr+1)^(0+1280),c
  1046   004AFA  EC51  F02C         	call	_IO_RTC_StartTime	;wreg free
  1047   004AFE                     
  1048                           ;main.c: 263:         if(CAN1.ReceivedMessageCountGet() > 0) {
  1049   004AFE  0E22               	movlw	low (_CAN1+33)
  1050   004B00  6EF6               	movwf	tblptrl,c
  1051   004B02  0E40               	movlw	high (_CAN1+33)
  1052   004B04  6EF7               	movwf	tblptrh,c
  1053   004B06                     	if	0	;tblptru may be non-zero
  1054   004B06                     	endif
  1055   004B06                     	if	1	;Program memory is > 0xFFFF, there are 3 active tblptr bytes
  1056   004B06  0E00               	movlw	low (__mediumconst shr (0+16))
  1057   004B08  6EF8               	movwf	tblptru,c
  1058   004B0A                     	endif
  1059   004B0A  D802               	call	u3938
  1060   004B0C  EF95  F025         	goto	u3939
  1061   004B10                     u3938:
  1062   004B10  0005               	push	
  1063   004B12  6EFA               	movwf	pclath,c
  1064   004B14  0009               	tblrd		*+
  1065   004B16  50F5               	movf	tablat,w,c
  1066   004B18  6EFD               	movwf	tosl,c
  1067   004B1A  0009               	tblrd		*+
  1068   004B1C  50F5               	movf	tablat,w,c
  1069   004B1E  6EFE               	movwf	tosh,c
  1070   004B20  0009               	tblrd		*+
  1071   004B22  50F5               	movf	tablat,w,c
  1072   004B24  6EFF               	movwf	tosu,c
  1073   004B26  50FA               	movf	pclath,w,c
  1074   004B28  0012               	return		;indir
  1075   004B2A                     u3939:
  1076   004B2A  0900               	iorlw	0
  1077   004B2C  B4D8               	btfsc	status,2,c
  1078   004B2E  EF9B  F025         	goto	u3941
  1079   004B32  EF9D  F025         	goto	u3940
  1080   004B36                     u3941:
  1081   004B36  EF22  F026         	goto	l4010
  1082   004B3A                     u3940:
  1083   004B3A                     
  1084                           ;main.c: 264:             if (CAN1.Receive(&RxFrm)) {
  1085   004B3A  0E8E               	movlw	low _RxFrm
  1086   004B3C  6E19               	movwf	CAN1_Receive@rxCanMsg^(0+1280),c
  1087   004B3E  0E05               	movlw	high _RxFrm
  1088   004B40  6E1A               	movwf	(CAN1_Receive@rxCanMsg+1)^(0+1280),c
  1089   004B42  0E1C               	movlw	low (_CAN1+27)
  1090   004B44  6EF6               	movwf	tblptrl,c
  1091   004B46  0E40               	movlw	high (_CAN1+27)
  1092   004B48  6EF7               	movwf	tblptrh,c
  1093   004B4A                     	if	0	;tblptru may be non-zero
  1094   004B4A                     	endif
  1095   004B4A                     	if	1	;Program memory is > 0xFFFF, there are 3 active tblptr bytes
  1096   004B4A  0E00               	movlw	low (__mediumconst shr (0+16))
  1097   004B4C  6EF8               	movwf	tblptru,c
  1098   004B4E                     	endif
  1099   004B4E  D802               	call	u3958
  1100   004B50  EFB7  F025         	goto	u3959
  1101   004B54                     u3958:
  1102   004B54  0005               	push	
  1103   004B56  6EFA               	movwf	pclath,c
  1104   004B58  0009               	tblrd		*+
  1105   004B5A  50F5               	movf	tablat,w,c
  1106   004B5C  6EFD               	movwf	tosl,c
  1107   004B5E  0009               	tblrd		*+
  1108   004B60  50F5               	movf	tablat,w,c
  1109   004B62  6EFE               	movwf	tosh,c
  1110   004B64  0009               	tblrd		*+
  1111   004B66  50F5               	movf	tablat,w,c
  1112   004B68  6EFF               	movwf	tosu,c
  1113   004B6A  50FA               	movf	pclath,w,c
  1114   004B6C  0012               	return		;indir
  1115   004B6E                     u3959:
  1116   004B6E  0900               	iorlw	0
  1117   004B70  B4D8               	btfsc	status,2,c
  1118   004B72  EFBD  F025         	goto	u3961
  1119   004B76  EFBF  F025         	goto	u3960
  1120   004B7A                     u3961:
  1121   004B7A  EF22  F026         	goto	l4010
  1122   004B7E                     u3960:
  1123   004B7E                     
  1124                           ;main.c: 265:                 if (RxFrm.msgId == 0x391) {
  1125   004B7E  0E91               	movlw	145
  1126   004B80  0105               	movlb	5	; () banked
  1127   004B82  198E               	xorwf	_RxFrm& (0+255),w,b
  1128   004B84  E109               	bnz	u3971
  1129   004B86  0E03               	movlw	3
  1130   004B88  198F               	xorwf	(_RxFrm+1)& (0+255),w,b
  1131   004B8A  1190               	iorwf	(_RxFrm+2)& (0+255),w,b
  1132   004B8C  1191               	iorwf	(_RxFrm+3)& (0+255),w,b
  1133   004B8E  A4D8               	btfss	status,2,c
  1134   004B90  EFCC  F025         	goto	u3971
  1135   004B94  EFCE  F025         	goto	u3970
  1136   004B98                     u3971:
  1137   004B98  EFF6  F025         	goto	l4004
  1138   004B9C                     u3970:
  1139   004B9C                     
  1140                           ; BSR set to: 5
  1141                           ;main.c: 266:                     uint16_t SoC_raw = RxFrm.data[0];
  1142   004B9C  C593  F4D9         	movff	_RxFrm+5,fsr2l
  1143   004BA0  C594  F4DA         	movff	_RxFrm+6,fsr2h
  1144   004BA4  50DF               	movf	indf2,w,c
  1145   004BA6  6E3E               	movwf	??_main^(0+1280),c
  1146   004BA8  503E               	movf	??_main^(0+1280),w,c
  1147   004BAA  6F9C               	movwf	main@SoC_raw& (0+255),b
  1148   004BAC  6B9D               	clrf	(main@SoC_raw+1)& (0+255),b
  1149   004BAE                     
  1150                           ; BSR set to: 5
  1151                           ;main.c: 267:                     SoC = linear_map(
  1152   004BAE  0E00               	movlw	0
  1153   004BB0  6E1D               	movwf	(linear_map@a+1)^(0+1280),c
  1154   004BB2  0E00               	movlw	0
  1155   004BB4  6E1C               	movwf	linear_map@a^(0+1280),c
  1156   004BB6  0E00               	movlw	0
  1157   004BB8  6E1F               	movwf	(linear_map@b+1)^(0+1280),c
  1158   004BBA  681E               	setf	linear_map@b^(0+1280),c
  1159   004BBC  0E00               	movlw	0
  1160   004BBE  6E21               	movwf	(linear_map@x+1)^(0+1280),c
  1161   004BC0  0E00               	movlw	0
  1162   004BC2  6E20               	movwf	linear_map@x^(0+1280),c
  1163   004BC4  0E27               	movlw	39
  1164   004BC6  6E23               	movwf	(linear_map@y+1)^(0+1280),c
  1165   004BC8  0E10               	movlw	16
  1166   004BCA  6E22               	movwf	linear_map@y^(0+1280),c
  1167   004BCC  C59C  F524         	movff	main@SoC_raw,linear_map@value
  1168   004BD0  C59D  F525         	movff	main@SoC_raw+1,linear_map@value+1
  1169   004BD4  ECDA  F027         	call	_linear_map	;wreg free
  1170   004BD8  C51C  F558         	movff	?_linear_map,_SoC
  1171   004BDC  C51D  F559         	movff	?_linear_map+1,_SoC+1
  1172   004BE0                     
  1173                           ;main.c: 274:                     IO_RTC_StartTime(&TiOutTmr);
  1174   004BE0  0E50               	movlw	low _TiOutTmr
  1175   004BE2  6E03               	movwf	IO_RTC_StartTime@ptr^(0+1280),c
  1176   004BE4  0E05               	movlw	high _TiOutTmr
  1177   004BE6  6E04               	movwf	(IO_RTC_StartTime@ptr+1)^(0+1280),c
  1178   004BE8  EC51  F02C         	call	_IO_RTC_StartTime	;wreg free
  1179   004BEC                     l4004:
  1180                           
  1181                           ;main.c: 278:                 TxFrm.data[1] = SoC & 0xFF;
  1182   004BEC  0105               	movlb	5	; () banked
  1183   004BEE  EE20 F001          	lfsr	2,1
  1184   004BF2  519A               	movf	(_TxFrm+5)& (0+255),w,b
  1185   004BF4  26D9               	addwf	fsr2l,f,c
  1186   004BF6  519B               	movf	(_TxFrm+6)& (0+255),w,b
  1187   004BF8  22DA               	addwfc	fsr2h,f,c
  1188   004BFA  C558  F4DF         	movff	_SoC,indf2
  1189   004BFE                     
  1190                           ; BSR set to: 5
  1191                           ;main.c: 279:                 TxFrm.data[2] = (SoC >> 8) & 0xFF;
  1192   004BFE  EE20 F002          	lfsr	2,2
  1193   004C02  519A               	movf	(_TxFrm+5)& (0+255),w,b
  1194   004C04  26D9               	addwf	fsr2l,f,c
  1195   004C06  519B               	movf	(_TxFrm+6)& (0+255),w,b
  1196   004C08  22DA               	addwfc	fsr2h,f,c
  1197   004C0A  5059               	movf	(_SoC+1)^(0+1280),w,c
  1198   004C0C  6EDF               	movwf	indf2,c
  1199   004C0E                     
  1200                           ; BSR set to: 5
  1201                           ;main.c: 280:                 CAN1.Transmit(CAN1_TXQ, &TxFrm);
  1202   004C0E  0E0D               	movlw	low (_CAN1+12)
  1203   004C10  6EF6               	movwf	tblptrl,c
  1204   004C12  0E40               	movlw	high (_CAN1+12)
  1205   004C14  6EF7               	movwf	tblptrh,c
  1206   004C16                     	if	0	;tblptru may be non-zero
  1207   004C16                     	endif
  1208   004C16                     	if	1	;Program memory is > 0xFFFF, there are 3 active tblptr bytes
  1209   004C16  0E00               	movlw	low (__mediumconst shr (0+16))
  1210   004C18  6EF8               	movwf	tblptru,c
  1211   004C1A                     	endif
  1212   004C1A  D802               	call	u3988
  1213   004C1C  EF22  F026         	goto	u3989
  1214   004C20                     u3988:
  1215   004C20  0005               	push	
  1216   004C22  6EFA               	movwf	pclath,c
  1217   004C24  0009               	tblrd		*+
  1218   004C26  50F5               	movf	tablat,w,c
  1219   004C28  6EFD               	movwf	tosl,c
  1220   004C2A  0009               	tblrd		*+
  1221   004C2C  50F5               	movf	tablat,w,c
  1222   004C2E  6EFE               	movwf	tosh,c
  1223   004C30  0009               	tblrd		*+
  1224   004C32  50F5               	movf	tablat,w,c
  1225   004C34  6EFF               	movwf	tosu,c
  1226   004C36  50FA               	movf	pclath,w,c
  1227   004C38  0E95               	movlw	low _TxFrm
  1228   004C3A  6E1C               	movwf	CAN1_Transmit@txCanMsg^(0+1280),c
  1229   004C3C  0E05               	movlw	high _TxFrm
  1230   004C3E  6E1D               	movwf	(CAN1_Transmit@txCanMsg+1)^(0+1280),c
  1231   004C40  0E00               	movlw	0
  1232   004C42  0012               	return		;indir
  1233   004C44                     u3989:
  1234   004C44                     l4010:
  1235                           
  1236                           ;main.c: 290:         if (IO_RTC_GetTimeUS(TiOutTmr) >= 60000000) {
  1237   004C44  C550  F503         	movff	_TiOutTmr,IO_RTC_GetTimeUS@tmr
  1238   004C48  C551  F504         	movff	_TiOutTmr+1,IO_RTC_GetTimeUS@tmr+1
  1239   004C4C  C552  F505         	movff	_TiOutTmr+2,IO_RTC_GetTimeUS@tmr+2
  1240   004C50  C553  F506         	movff	_TiOutTmr+3,IO_RTC_GetTimeUS@tmr+3
  1241   004C54  ECE5  F02C         	call	_IO_RTC_GetTimeUS
  1242   004C58  0E87               	movlw	135
  1243   004C5A  5C04               	subwf	(?_IO_RTC_GetTimeUS+1)^(0+1280),w,c
  1244   004C5C  0E93               	movlw	147
  1245   004C5E  5805               	subwfb	(?_IO_RTC_GetTimeUS+2)^(0+1280),w,c
  1246   004C60  0E03               	movlw	3
  1247   004C62  5806               	subwfb	(?_IO_RTC_GetTimeUS+3)^(0+1280),w,c
  1248   004C64  A0D8               	btfss	status,0,c
  1249   004C66  EF37  F026         	goto	u3991
  1250   004C6A  EF39  F026         	goto	u3990
  1251   004C6E                     u3991:
  1252   004C6E  EF3D  F026         	goto	l4014
  1253   004C72                     u3990:
  1254   004C72                     
  1255                           ;main.c: 291:             SoC = 0U;
  1256   004C72  0E00               	movlw	0
  1257   004C74  6E59               	movwf	(_SoC+1)^(0+1280),c
  1258   004C76  0E00               	movlw	0
  1259   004C78  6E58               	movwf	_SoC^(0+1280),c
  1260   004C7A                     l4014:
  1261                           
  1262                           ;main.c: 294:         calculate_P(&P0, &P1, SoC);
  1263   004C7A  0E5D               	movlw	low _P0
  1264   004C7C  6E03               	movwf	calculate_P@p0^(0+1280),c
  1265   004C7E  0E05               	movlw	high _P0
  1266   004C80  6E04               	movwf	(calculate_P@p0+1)^(0+1280),c
  1267   004C82  0E5C               	movlw	low _P1
  1268   004C84  6E05               	movwf	calculate_P@p1^(0+1280),c
  1269   004C86  0E05               	movlw	high _P1
  1270   004C88  6E06               	movwf	(calculate_P@p1+1)^(0+1280),c
  1271   004C8A  C558  F507         	movff	_SoC,calculate_P@percent
  1272   004C8E  C559  F508         	movff	_SoC+1,calculate_P@percent+1
  1273   004C92  EC47  F020         	call	_calculate_P	;wreg free
  1274   004C96                     
  1275                           ;main.c: 295:         transmit_P(P0, P1);
  1276   004C96  C55C  F505         	movff	_P1,transmit_P@p1
  1277   004C9A  505D               	movf	_P0^(0+1280),w,c
  1278   004C9C  EC6D  F026         	call	_transmit_P
  1279   004CA0                     l4018:
  1280                           
  1281                           ;main.c: 297:         while (IO_RTC_GetTimeUS(Tmr) < 1000000) {
  1282   004CA0  C554  F503         	movff	_Tmr,IO_RTC_GetTimeUS@tmr
  1283   004CA4  C555  F504         	movff	_Tmr+1,IO_RTC_GetTimeUS@tmr+1
  1284   004CA8  C556  F505         	movff	_Tmr+2,IO_RTC_GetTimeUS@tmr+2
  1285   004CAC  C557  F506         	movff	_Tmr+3,IO_RTC_GetTimeUS@tmr+3
  1286   004CB0  ECE5  F02C         	call	_IO_RTC_GetTimeUS	;wreg free
  1287   004CB4  5006               	movf	(?_IO_RTC_GetTimeUS+3)^(0+1280),w,c
  1288   004CB6  E10D               	bnz	u4000
  1289   004CB8  0E40               	movlw	64
  1290   004CBA  5C03               	subwf	?_IO_RTC_GetTimeUS^(0+1280),w,c
  1291   004CBC  0E42               	movlw	66
  1292   004CBE  5804               	subwfb	(?_IO_RTC_GetTimeUS+1)^(0+1280),w,c
  1293   004CC0  0E0F               	movlw	15
  1294   004CC2  5805               	subwfb	(?_IO_RTC_GetTimeUS+2)^(0+1280),w,c
  1295   004CC4  A0D8               	btfss	status,0,c
  1296   004CC6  EF67  F026         	goto	u4001
  1297   004CCA  EF69  F026         	goto	u4000
  1298   004CCE                     u4001:
  1299   004CCE  EF50  F026         	goto	l4018
  1300   004CD2                     u4000:
  1301   004CD2  EF79  F025         	goto	l3990
  1302   004CD6  EF0D  F000         	goto	start
  1303   004CDA                     __end_of_main:
  1304                           	callstack 0
  1305                           
  1306 ;; *************** function _transmit_P *****************
  1307 ;; Defined at:
  1308 ;;		line 146 in file "main.c"
  1309 ;; Parameters:    Size  Location     Type
  1310 ;;  p0              1    wreg     unsigned char 
  1311 ;;  p1              1    4[COMRAM] unsigned char 
  1312 ;; Auto vars:     Size  Location     Type
  1313 ;;  p0              1    6[COMRAM] unsigned char 
  1314 ;; Return value:  Size  Location     Type
  1315 ;;                  1    wreg      void 
  1316 ;; Registers used:
  1317 ;;		wreg, status,2, status,0, pcl, pclath, pclatu, tosl, tblptrl, tblptrh, tblptru, prodl, prodh, cstack
  1318 ;; Tracked objects:
  1319 ;;		On entry : 0/0
  1320 ;;		On exit  : 0/0
  1321 ;;		Unchanged: 0/0
  1322 ;; Data sizes:     COMRAM   BANK5   BANK6   BANK7   BANK8   BANK9  BANK10  BANK11  BANK12  BANK13  BANK14  BANK15  BANK1
      +6  BANK17  BANK18  BANK19  BANK20  BANK21  BANK22  BANK23  BANK24  BANK25  BANK26  BANK27  BANK28  BANK29  BANK30  BANK3
      +1  BANK32  BANK33  BANK34  BANK35  BANK36  BANK37  BANK38  BANK39  BANK40  BANK41  BANK42  BANK43  BANK44  BANK45  BANK4
      +6  BANK47  BANK48  BANK49  BANK50  BANK51  BANK52  BANK53  BANK54
  1323 ;;      Params:         1       0       0       0       0       0       0       0       0       0       0       0       
      +0       0       0       0       0       0       0       0       0       0       0       0       0       0       0       
      +0       0       0       0       0       0       0       0       0       0       0       0       0       0       0       
      +0       0       0       0       0       0       0       0       0
  1324 ;;      Locals:         1       0       0       0       0       0       0       0       0       0       0       0       
      +0       0       0       0       0       0       0       0       0       0       0       0       0       0       0       
      +0       0       0       0       0       0       0       0       0       0       0       0       0       0       0       
      +0       0       0       0       0       0       0       0       0
  1325 ;;      Temps:          1       0       0       0       0       0       0       0       0       0       0       0       
      +0       0       0       0       0       0       0       0       0       0       0       0       0       0       0       
      +0       0       0       0       0       0       0       0       0       0       0       0       0       0       0       
      +0       0       0       0       0       0       0       0       0
  1326 ;;      Totals:         3       0       0       0       0       0       0       0       0       0       0       0       
      +0       0       0       0       0       0       0       0       0       0       0       0       0       0       0       
      +0       0       0       0       0       0       0       0       0       0       0       0       0       0       0       
      +0       0       0       0       0       0       0       0       0
  1327 ;;Total ram usage:        3 bytes
  1328 ;; Hardware stack levels used: 1
  1329 ;; Hardware stack levels required when called: 4
  1330 ;; This function calls:
  1331 ;;		_SPI2_ByteExchange
  1332 ;;		_SPI2_Close
  1333 ;;		_SPI2_Open
  1334 ;; This function is called by:
  1335 ;;		_main
  1336 ;; This function uses a non-reentrant model
  1337 ;;
  1338                           
  1339                           	psect	text1
  1340   004CDA                     __ptext1:
  1341                           	callstack 0
  1342   004CDA                     _transmit_P:
  1343                           	callstack 122
  1344                           
  1345                           ;incstack = 0
  1346                           ;transmit_P@p0 stored from wreg
  1347   004CDA  6E07               	movwf	transmit_P@p0^(0+1280),c
  1348   004CDC                     
  1349                           ;main.c: 146: void transmit_P(uint8_t p0, uint8_t p1);main.c: 147: {;main.c: 149:     SP
      +                          I2.Open(SPI2_DEFAULT);
  1350   004CDC  0E55               	movlw	low (_SPI2+6)
  1351   004CDE  6EF6               	movwf	tblptrl,c
  1352   004CE0  0E40               	movlw	high (_SPI2+6)
  1353   004CE2  6EF7               	movwf	tblptrh,c
  1354   004CE4                     	if	0	;tblptru may be non-zero
  1355   004CE4                     	endif
  1356   004CE4                     	if	1	;Program memory is > 0xFFFF, there are 3 active tblptr bytes
  1357   004CE4  0E00               	movlw	low (__mediumconst shr (0+16))
  1358   004CE6  6EF8               	movwf	tblptru,c
  1359   004CE8                     	endif
  1360   004CE8  D802               	call	u3618
  1361   004CEA  EF85  F026         	goto	u3619
  1362   004CEE                     u3618:
  1363   004CEE  0005               	push	
  1364   004CF0  6EFA               	movwf	pclath,c
  1365   004CF2  0009               	tblrd		*+
  1366   004CF4  50F5               	movf	tablat,w,c
  1367   004CF6  6EFD               	movwf	tosl,c
  1368   004CF8  0009               	tblrd		*+
  1369   004CFA  50F5               	movf	tablat,w,c
  1370   004CFC  6EFE               	movwf	tosh,c
  1371   004CFE  0009               	tblrd		*+
  1372   004D00  50F5               	movf	tablat,w,c
  1373   004D02  6EFF               	movwf	tosu,c
  1374   004D04  50FA               	movf	pclath,w,c
  1375   004D06  0E00               	movlw	0
  1376   004D08  0012               	return		;indir
  1377   004D0A                     u3619:
  1378   004D0A                     
  1379                           ;main.c: 150:     _delay((unsigned long)((50)*(64000000/4000000.0)));
  1380   004D0A  0EA0               	movlw	160
  1381   004D0C                     u4017:
  1382   004D0C  D000               	nop2	
  1383   004D0E  2EE8               	decfsz	wreg,f,c
  1384   004D10  D7FD               	bra	u4017
  1385   004D12  92BE               	bcf	190,1,c	;volatile
  1386   004D14                     
  1387                           ;main.c: 152:     _delay((unsigned long)((50)*(64000000/4000000.0)));
  1388   004D14  0EA0               	movlw	160
  1389   004D16                     u4027:
  1390   004D16  D000               	nop2	
  1391   004D18  2EE8               	decfsz	wreg,f,c
  1392   004D1A  D7FD               	bra	u4027
  1393   004D1C                     
  1394                           ;main.c: 153:     SPI2.ByteExchange(0x00);
  1395   004D1C  0E61               	movlw	low (_SPI2+18)
  1396   004D1E  6EF6               	movwf	tblptrl,c
  1397   004D20  0E40               	movlw	high (_SPI2+18)
  1398   004D22  6EF7               	movwf	tblptrh,c
  1399   004D24                     	if	0	;tblptru may be non-zero
  1400   004D24                     	endif
  1401   004D24                     	if	1	;Program memory is > 0xFFFF, there are 3 active tblptr bytes
  1402   004D24  0E00               	movlw	low (__mediumconst shr (0+16))
  1403   004D26  6EF8               	movwf	tblptru,c
  1404   004D28                     	endif
  1405   004D28  D802               	call	u3628
  1406   004D2A  EFA5  F026         	goto	u3629
  1407   004D2E                     u3628:
  1408   004D2E  0005               	push	
  1409   004D30  6EFA               	movwf	pclath,c
  1410   004D32  0009               	tblrd		*+
  1411   004D34  50F5               	movf	tablat,w,c
  1412   004D36  6EFD               	movwf	tosl,c
  1413   004D38  0009               	tblrd		*+
  1414   004D3A  50F5               	movf	tablat,w,c
  1415   004D3C  6EFE               	movwf	tosh,c
  1416   004D3E  0009               	tblrd		*+
  1417   004D40  50F5               	movf	tablat,w,c
  1418   004D42  6EFF               	movwf	tosu,c
  1419   004D44  50FA               	movf	pclath,w,c
  1420   004D46  0E00               	movlw	0
  1421   004D48  0012               	return		;indir
  1422   004D4A                     u3629:
  1423   004D4A                     
  1424                           ;main.c: 154:     SPI2.ByteExchange(p0);
  1425   004D4A  0E61               	movlw	low (_SPI2+18)
  1426   004D4C  6EF6               	movwf	tblptrl,c
  1427   004D4E  0E40               	movlw	high (_SPI2+18)
  1428   004D50  6EF7               	movwf	tblptrh,c
  1429   004D52                     	if	0	;tblptru may be non-zero
  1430   004D52                     	endif
  1431   004D52                     	if	1	;Program memory is > 0xFFFF, there are 3 active tblptr bytes
  1432   004D52  0E00               	movlw	low (__mediumconst shr (0+16))
  1433   004D54  6EF8               	movwf	tblptru,c
  1434   004D56                     	endif
  1435   004D56  D802               	call	u3638
  1436   004D58  EFBC  F026         	goto	u3639
  1437   004D5C                     u3638:
  1438   004D5C  0005               	push	
  1439   004D5E  6EFA               	movwf	pclath,c
  1440   004D60  0009               	tblrd		*+
  1441   004D62  50F5               	movf	tablat,w,c
  1442   004D64  6EFD               	movwf	tosl,c
  1443   004D66  0009               	tblrd		*+
  1444   004D68  50F5               	movf	tablat,w,c
  1445   004D6A  6EFE               	movwf	tosh,c
  1446   004D6C  0009               	tblrd		*+
  1447   004D6E  50F5               	movf	tablat,w,c
  1448   004D70  6EFF               	movwf	tosu,c
  1449   004D72  50FA               	movf	pclath,w,c
  1450   004D74  5007               	movf	transmit_P@p0^(0+1280),w,c
  1451   004D76  0012               	return		;indir
  1452   004D78                     u3639:
  1453   004D78                     
  1454                           ;main.c: 155:     _delay((unsigned long)((500)*(64000000/4000000.0)));
  1455   004D78  0E0B               	movlw	11
  1456   004D7A  6E06               	movwf	??_transmit_P^(0+1280),c
  1457   004D7C  0E62               	movlw	98
  1458   004D7E                     u4037:
  1459   004D7E  2EE8               	decfsz	wreg,f,c
  1460   004D80  D7FE               	bra	u4037
  1461   004D82  2E06               	decfsz	??_transmit_P^(0+1280),f,c
  1462   004D84  D7FC               	bra	u4037
  1463   004D86  D000               	nop2	
  1464   004D88  82BE               	bsf	190,1,c	;volatile
  1465   004D8A                     
  1466                           ;main.c: 157:     _delay((unsigned long)((50)*(64000000/4000000.0)));
  1467   004D8A  0EA0               	movlw	160
  1468   004D8C                     u4047:
  1469   004D8C  D000               	nop2	
  1470   004D8E  2EE8               	decfsz	wreg,f,c
  1471   004D90  D7FD               	bra	u4047
  1472   004D92                     
  1473                           ;main.c: 158:     SPI2.Close();
  1474   004D92  0E52               	movlw	low (_SPI2+3)
  1475   004D94  6EF6               	movwf	tblptrl,c
  1476   004D96  0E40               	movlw	high (_SPI2+3)
  1477   004D98  6EF7               	movwf	tblptrh,c
  1478   004D9A                     	if	0	;tblptru may be non-zero
  1479   004D9A                     	endif
  1480   004D9A                     	if	1	;Program memory is > 0xFFFF, there are 3 active tblptr bytes
  1481   004D9A  0E00               	movlw	low (__mediumconst shr (0+16))
  1482   004D9C  6EF8               	movwf	tblptru,c
  1483   004D9E                     	endif
  1484   004D9E  D802               	call	u3648
  1485   004DA0  EFDF  F026         	goto	u3649
  1486   004DA4                     u3648:
  1487   004DA4  0005               	push	
  1488   004DA6  6EFA               	movwf	pclath,c
  1489   004DA8  0009               	tblrd		*+
  1490   004DAA  50F5               	movf	tablat,w,c
  1491   004DAC  6EFD               	movwf	tosl,c
  1492   004DAE  0009               	tblrd		*+
  1493   004DB0  50F5               	movf	tablat,w,c
  1494   004DB2  6EFE               	movwf	tosh,c
  1495   004DB4  0009               	tblrd		*+
  1496   004DB6  50F5               	movf	tablat,w,c
  1497   004DB8  6EFF               	movwf	tosu,c
  1498   004DBA  50FA               	movf	pclath,w,c
  1499   004DBC  0012               	return		;indir
  1500   004DBE                     u3649:
  1501   004DBE                     
  1502                           ;main.c: 159:     _delay((unsigned long)((50)*(64000000/4000000.0)));
  1503   004DBE  0EA0               	movlw	160
  1504   004DC0                     u4057:
  1505   004DC0  D000               	nop2	
  1506   004DC2  2EE8               	decfsz	wreg,f,c
  1507   004DC4  D7FD               	bra	u4057
  1508   004DC6                     
  1509                           ;main.c: 161:     SPI2.Open(SPI2_DEFAULT);
  1510   004DC6  0E55               	movlw	low (_SPI2+6)
  1511   004DC8  6EF6               	movwf	tblptrl,c
  1512   004DCA  0E40               	movlw	high (_SPI2+6)
  1513   004DCC  6EF7               	movwf	tblptrh,c
  1514   004DCE                     	if	0	;tblptru may be non-zero
  1515   004DCE                     	endif
  1516   004DCE                     	if	1	;Program memory is > 0xFFFF, there are 3 active tblptr bytes
  1517   004DCE  0E00               	movlw	low (__mediumconst shr (0+16))
  1518   004DD0  6EF8               	movwf	tblptru,c
  1519   004DD2                     	endif
  1520   004DD2  D802               	call	u3658
  1521   004DD4  EFFA  F026         	goto	u3659
  1522   004DD8                     u3658:
  1523   004DD8  0005               	push	
  1524   004DDA  6EFA               	movwf	pclath,c
  1525   004DDC  0009               	tblrd		*+
  1526   004DDE  50F5               	movf	tablat,w,c
  1527   004DE0  6EFD               	movwf	tosl,c
  1528   004DE2  0009               	tblrd		*+
  1529   004DE4  50F5               	movf	tablat,w,c
  1530   004DE6  6EFE               	movwf	tosh,c
  1531   004DE8  0009               	tblrd		*+
  1532   004DEA  50F5               	movf	tablat,w,c
  1533   004DEC  6EFF               	movwf	tosu,c
  1534   004DEE  50FA               	movf	pclath,w,c
  1535   004DF0  0E00               	movlw	0
  1536   004DF2  0012               	return		;indir
  1537   004DF4                     u3659:
  1538   004DF4                     
  1539                           ;main.c: 162:     _delay((unsigned long)((50)*(64000000/4000000.0)));
  1540   004DF4  0EA0               	movlw	160
  1541   004DF6                     u4067:
  1542   004DF6  D000               	nop2	
  1543   004DF8  2EE8               	decfsz	wreg,f,c
  1544   004DFA  D7FD               	bra	u4067
  1545   004DFC  92BE               	bcf	190,1,c	;volatile
  1546   004DFE                     
  1547                           ;main.c: 164:     _delay((unsigned long)((50)*(64000000/4000000.0)));
  1548   004DFE  0EA0               	movlw	160
  1549   004E00                     u4077:
  1550   004E00  D000               	nop2	
  1551   004E02  2EE8               	decfsz	wreg,f,c
  1552   004E04  D7FD               	bra	u4077
  1553   004E06                     
  1554                           ;main.c: 165:     SPI2.ByteExchange(0x10);
  1555   004E06  0E61               	movlw	low (_SPI2+18)
  1556   004E08  6EF6               	movwf	tblptrl,c
  1557   004E0A  0E40               	movlw	high (_SPI2+18)
  1558   004E0C  6EF7               	movwf	tblptrh,c
  1559   004E0E                     	if	0	;tblptru may be non-zero
  1560   004E0E                     	endif
  1561   004E0E                     	if	1	;Program memory is > 0xFFFF, there are 3 active tblptr bytes
  1562   004E0E  0E00               	movlw	low (__mediumconst shr (0+16))
  1563   004E10  6EF8               	movwf	tblptru,c
  1564   004E12                     	endif
  1565   004E12  D802               	call	u3668
  1566   004E14  EF1A  F027         	goto	u3669
  1567   004E18                     u3668:
  1568   004E18  0005               	push	
  1569   004E1A  6EFA               	movwf	pclath,c
  1570   004E1C  0009               	tblrd		*+
  1571   004E1E  50F5               	movf	tablat,w,c
  1572   004E20  6EFD               	movwf	tosl,c
  1573   004E22  0009               	tblrd		*+
  1574   004E24  50F5               	movf	tablat,w,c
  1575   004E26  6EFE               	movwf	tosh,c
  1576   004E28  0009               	tblrd		*+
  1577   004E2A  50F5               	movf	tablat,w,c
  1578   004E2C  6EFF               	movwf	tosu,c
  1579   004E2E  50FA               	movf	pclath,w,c
  1580   004E30  0E10               	movlw	16
  1581   004E32  0012               	return		;indir
  1582   004E34                     u3669:
  1583   004E34                     
  1584                           ;main.c: 166:     SPI2.ByteExchange(p1);
  1585   004E34  0E61               	movlw	low (_SPI2+18)
  1586   004E36  6EF6               	movwf	tblptrl,c
  1587   004E38  0E40               	movlw	high (_SPI2+18)
  1588   004E3A  6EF7               	movwf	tblptrh,c
  1589   004E3C                     	if	0	;tblptru may be non-zero
  1590   004E3C                     	endif
  1591   004E3C                     	if	1	;Program memory is > 0xFFFF, there are 3 active tblptr bytes
  1592   004E3C  0E00               	movlw	low (__mediumconst shr (0+16))
  1593   004E3E  6EF8               	movwf	tblptru,c
  1594   004E40                     	endif
  1595   004E40  D802               	call	u3678
  1596   004E42  EF31  F027         	goto	u3679
  1597   004E46                     u3678:
  1598   004E46  0005               	push	
  1599   004E48  6EFA               	movwf	pclath,c
  1600   004E4A  0009               	tblrd		*+
  1601   004E4C  50F5               	movf	tablat,w,c
  1602   004E4E  6EFD               	movwf	tosl,c
  1603   004E50  0009               	tblrd		*+
  1604   004E52  50F5               	movf	tablat,w,c
  1605   004E54  6EFE               	movwf	tosh,c
  1606   004E56  0009               	tblrd		*+
  1607   004E58  50F5               	movf	tablat,w,c
  1608   004E5A  6EFF               	movwf	tosu,c
  1609   004E5C  50FA               	movf	pclath,w,c
  1610   004E5E  5005               	movf	transmit_P@p1^(0+1280),w,c
  1611   004E60  0012               	return		;indir
  1612   004E62                     u3679:
  1613   004E62                     
  1614                           ;main.c: 167:     _delay((unsigned long)((500)*(64000000/4000000.0)));
  1615   004E62  0E0B               	movlw	11
  1616   004E64  6E06               	movwf	??_transmit_P^(0+1280),c
  1617   004E66  0E62               	movlw	98
  1618   004E68                     u4087:
  1619   004E68  2EE8               	decfsz	wreg,f,c
  1620   004E6A  D7FE               	bra	u4087
  1621   004E6C  2E06               	decfsz	??_transmit_P^(0+1280),f,c
  1622   004E6E  D7FC               	bra	u4087
  1623   004E70  D000               	nop2	
  1624   004E72  82BE               	bsf	190,1,c	;volatile
  1625   004E74                     
  1626                           ;main.c: 169:     _delay((unsigned long)((50)*(64000000/4000000.0)));
  1627   004E74  0EA0               	movlw	160
  1628   004E76                     u4097:
  1629   004E76  D000               	nop2	
  1630   004E78  2EE8               	decfsz	wreg,f,c
  1631   004E7A  D7FD               	bra	u4097
  1632   004E7C                     
  1633                           ;main.c: 170:     SPI2.Close();
  1634   004E7C  0E52               	movlw	low (_SPI2+3)
  1635   004E7E  6EF6               	movwf	tblptrl,c
  1636   004E80  0E40               	movlw	high (_SPI2+3)
  1637   004E82  6EF7               	movwf	tblptrh,c
  1638   004E84                     	if	0	;tblptru may be non-zero
  1639   004E84                     	endif
  1640   004E84                     	if	1	;Program memory is > 0xFFFF, there are 3 active tblptr bytes
  1641   004E84  0E00               	movlw	low (__mediumconst shr (0+16))
  1642   004E86  6EF8               	movwf	tblptru,c
  1643   004E88                     	endif
  1644   004E88  D802               	call	u3688
  1645   004E8A  EF54  F027         	goto	u3689
  1646   004E8E                     u3688:
  1647   004E8E  0005               	push	
  1648   004E90  6EFA               	movwf	pclath,c
  1649   004E92  0009               	tblrd		*+
  1650   004E94  50F5               	movf	tablat,w,c
  1651   004E96  6EFD               	movwf	tosl,c
  1652   004E98  0009               	tblrd		*+
  1653   004E9A  50F5               	movf	tablat,w,c
  1654   004E9C  6EFE               	movwf	tosh,c
  1655   004E9E  0009               	tblrd		*+
  1656   004EA0  50F5               	movf	tablat,w,c
  1657   004EA2  6EFF               	movwf	tosu,c
  1658   004EA4  50FA               	movf	pclath,w,c
  1659   004EA6  0012               	return		;indir
  1660   004EA8                     u3689:
  1661   004EA8  0012               	return		;funcret
  1662   004EAA                     __end_of_transmit_P:
  1663                           	callstack 0
  1664                           
  1665 ;; *************** function _setup_Poti *****************
  1666 ;; Defined at:
  1667 ;;		line 107 in file "main.c"
  1668 ;; Parameters:    Size  Location     Type
  1669 ;;		None
  1670 ;; Auto vars:     Size  Location     Type
  1671 ;;		None
  1672 ;; Return value:  Size  Location     Type
  1673 ;;                  1    wreg      void 
  1674 ;; Registers used:
  1675 ;;		wreg, status,2, status,0, pcl, pclath, pclatu, tosl, tblptrl, tblptrh, tblptru, prodl, prodh, cstack
  1676 ;; Tracked objects:
  1677 ;;		On entry : 0/0
  1678 ;;		On exit  : 0/0
  1679 ;;		Unchanged: 0/0
  1680 ;; Data sizes:     COMRAM   BANK5   BANK6   BANK7   BANK8   BANK9  BANK10  BANK11  BANK12  BANK13  BANK14  BANK15  BANK1
      +6  BANK17  BANK18  BANK19  BANK20  BANK21  BANK22  BANK23  BANK24  BANK25  BANK26  BANK27  BANK28  BANK29  BANK30  BANK3
      +1  BANK32  BANK33  BANK34  BANK35  BANK36  BANK37  BANK38  BANK39  BANK40  BANK41  BANK42  BANK43  BANK44  BANK45  BANK4
      +6  BANK47  BANK48  BANK49  BANK50  BANK51  BANK52  BANK53  BANK54
  1681 ;;      Params:         0       0       0       0       0       0       0       0       0       0       0       0       
      +0       0       0       0       0       0       0       0       0       0       0       0       0       0       0       
      +0       0       0       0       0       0       0       0       0       0       0       0       0       0       0       
      +0       0       0       0       0       0       0       0       0
  1682 ;;      Locals:         0       0       0       0       0       0       0       0       0       0       0       0       
      +0       0       0       0       0       0       0       0       0       0       0       0       0       0       0       
      +0       0       0       0       0       0       0       0       0       0       0       0       0       0       0       
      +0       0       0       0       0       0       0       0       0
  1683 ;;      Temps:          2       0       0       0       0       0       0       0       0       0       0       0       
      +0       0       0       0       0       0       0       0       0       0       0       0       0       0       0       
      +0       0       0       0       0       0       0       0       0       0       0       0       0       0       0       
      +0       0       0       0       0       0       0       0       0
  1684 ;;      Totals:         2       0       0       0       0       0       0       0       0       0       0       0       
      +0       0       0       0       0       0       0       0       0       0       0       0       0       0       0       
      +0       0       0       0       0       0       0       0       0       0       0       0       0       0       0       
      +0       0       0       0       0       0       0       0       0
  1685 ;;Total ram usage:        2 bytes
  1686 ;; Hardware stack levels used: 1
  1687 ;; Hardware stack levels required when called: 4
  1688 ;; This function calls:
  1689 ;;		_SPI2_ByteExchange
  1690 ;;		_SPI2_Close
  1691 ;;		_SPI2_Open
  1692 ;; This function is called by:
  1693 ;;		_main
  1694 ;; This function uses a non-reentrant model
  1695 ;;
  1696                           
  1697                           	psect	text2
  1698   00437C                     __ptext2:
  1699                           	callstack 0
  1700   00437C                     _setup_Poti:
  1701                           	callstack 122
  1702   00437C                     
  1703                           ;main.c: 109:     SPI2.Open(SPI2_DEFAULT);
  1704   00437C  0E55               	movlw	low (_SPI2+6)
  1705   00437E  6EF6               	movwf	tblptrl,c
  1706   004380  0E40               	movlw	high (_SPI2+6)
  1707   004382  6EF7               	movwf	tblptrh,c
  1708   004384                     	if	0	;tblptru may be non-zero
  1709   004384                     	endif
  1710   004384                     	if	1	;Program memory is > 0xFFFF, there are 3 active tblptr bytes
  1711   004384  0E00               	movlw	low (__mediumconst shr (0+16))
  1712   004386  6EF8               	movwf	tblptru,c
  1713   004388                     	endif
  1714   004388  D802               	call	u3498
  1715   00438A  EFD5  F021         	goto	u3499
  1716   00438E                     u3498:
  1717   00438E  0005               	push	
  1718   004390  6EFA               	movwf	pclath,c
  1719   004392  0009               	tblrd		*+
  1720   004394  50F5               	movf	tablat,w,c
  1721   004396  6EFD               	movwf	tosl,c
  1722   004398  0009               	tblrd		*+
  1723   00439A  50F5               	movf	tablat,w,c
  1724   00439C  6EFE               	movwf	tosh,c
  1725   00439E  0009               	tblrd		*+
  1726   0043A0  50F5               	movf	tablat,w,c
  1727   0043A2  6EFF               	movwf	tosu,c
  1728   0043A4  50FA               	movf	pclath,w,c
  1729   0043A6  0E00               	movlw	0
  1730   0043A8  0012               	return		;indir
  1731   0043AA                     u3499:
  1732   0043AA                     
  1733                           ;main.c: 111:     _delay((unsigned long)((50)*(64000000/4000000.0)));
  1734   0043AA  0EA0               	movlw	160
  1735   0043AC                     u4107:
  1736   0043AC  D000               	nop2	
  1737   0043AE  2EE8               	decfsz	wreg,f,c
  1738   0043B0  D7FD               	bra	u4107
  1739   0043B2  92BE               	bcf	190,1,c	;volatile
  1740   0043B4                     
  1741                           ;main.c: 113:     _delay((unsigned long)((50)*(64000000/4000000.0)));
  1742   0043B4  0EA0               	movlw	160
  1743   0043B6                     u4117:
  1744   0043B6  D000               	nop2	
  1745   0043B8  2EE8               	decfsz	wreg,f,c
  1746   0043BA  D7FD               	bra	u4117
  1747   0043BC                     
  1748                           ;main.c: 114:     SPI2.ByteExchange(0x40);
  1749   0043BC  0E61               	movlw	low (_SPI2+18)
  1750   0043BE  6EF6               	movwf	tblptrl,c
  1751   0043C0  0E40               	movlw	high (_SPI2+18)
  1752   0043C2  6EF7               	movwf	tblptrh,c
  1753   0043C4                     	if	0	;tblptru may be non-zero
  1754   0043C4                     	endif
  1755   0043C4                     	if	1	;Program memory is > 0xFFFF, there are 3 active tblptr bytes
  1756   0043C4  0E00               	movlw	low (__mediumconst shr (0+16))
  1757   0043C6  6EF8               	movwf	tblptru,c
  1758   0043C8                     	endif
  1759   0043C8  D802               	call	u3508
  1760   0043CA  EFF5  F021         	goto	u3509
  1761   0043CE                     u3508:
  1762   0043CE  0005               	push	
  1763   0043D0  6EFA               	movwf	pclath,c
  1764   0043D2  0009               	tblrd		*+
  1765   0043D4  50F5               	movf	tablat,w,c
  1766   0043D6  6EFD               	movwf	tosl,c
  1767   0043D8  0009               	tblrd		*+
  1768   0043DA  50F5               	movf	tablat,w,c
  1769   0043DC  6EFE               	movwf	tosh,c
  1770   0043DE  0009               	tblrd		*+
  1771   0043E0  50F5               	movf	tablat,w,c
  1772   0043E2  6EFF               	movwf	tosu,c
  1773   0043E4  50FA               	movf	pclath,w,c
  1774   0043E6  0E40               	movlw	64
  1775   0043E8  0012               	return		;indir
  1776   0043EA                     u3509:
  1777   0043EA                     
  1778                           ;main.c: 115:     SPI2.ByteExchange(0xEE);
  1779   0043EA  0E61               	movlw	low (_SPI2+18)
  1780   0043EC  6EF6               	movwf	tblptrl,c
  1781   0043EE  0E40               	movlw	high (_SPI2+18)
  1782   0043F0  6EF7               	movwf	tblptrh,c
  1783   0043F2                     	if	0	;tblptru may be non-zero
  1784   0043F2                     	endif
  1785   0043F2                     	if	1	;Program memory is > 0xFFFF, there are 3 active tblptr bytes
  1786   0043F2  0E00               	movlw	low (__mediumconst shr (0+16))
  1787   0043F4  6EF8               	movwf	tblptru,c
  1788   0043F6                     	endif
  1789   0043F6  D802               	call	u3518
  1790   0043F8  EF0C  F022         	goto	u3519
  1791   0043FC                     u3518:
  1792   0043FC  0005               	push	
  1793   0043FE  6EFA               	movwf	pclath,c
  1794   004400  0009               	tblrd		*+
  1795   004402  50F5               	movf	tablat,w,c
  1796   004404  6EFD               	movwf	tosl,c
  1797   004406  0009               	tblrd		*+
  1798   004408  50F5               	movf	tablat,w,c
  1799   00440A  6EFE               	movwf	tosh,c
  1800   00440C  0009               	tblrd		*+
  1801   00440E  50F5               	movf	tablat,w,c
  1802   004410  6EFF               	movwf	tosu,c
  1803   004412  50FA               	movf	pclath,w,c
  1804   004414  0EEE               	movlw	238
  1805   004416  0012               	return		;indir
  1806   004418                     u3519:
  1807   004418                     
  1808                           ;main.c: 116:     _delay((unsigned long)((500)*(64000000/4000000.0)));
  1809   004418  0E0B               	movlw	11
  1810   00441A  6E05               	movwf	??_setup_Poti^(0+1280),c
  1811   00441C  0E62               	movlw	98
  1812   00441E                     u4127:
  1813   00441E  2EE8               	decfsz	wreg,f,c
  1814   004420  D7FE               	bra	u4127
  1815   004422  2E05               	decfsz	??_setup_Poti^(0+1280),f,c
  1816   004424  D7FC               	bra	u4127
  1817   004426  D000               	nop2	
  1818   004428  82BE               	bsf	190,1,c	;volatile
  1819   00442A                     
  1820                           ;main.c: 118:     _delay((unsigned long)((50)*(64000000/4000000.0)));
  1821   00442A  0EA0               	movlw	160
  1822   00442C                     u4137:
  1823   00442C  D000               	nop2	
  1824   00442E  2EE8               	decfsz	wreg,f,c
  1825   004430  D7FD               	bra	u4137
  1826   004432                     
  1827                           ;main.c: 119:     SPI2.Close();
  1828   004432  0E52               	movlw	low (_SPI2+3)
  1829   004434  6EF6               	movwf	tblptrl,c
  1830   004436  0E40               	movlw	high (_SPI2+3)
  1831   004438  6EF7               	movwf	tblptrh,c
  1832   00443A                     	if	0	;tblptru may be non-zero
  1833   00443A                     	endif
  1834   00443A                     	if	1	;Program memory is > 0xFFFF, there are 3 active tblptr bytes
  1835   00443A  0E00               	movlw	low (__mediumconst shr (0+16))
  1836   00443C  6EF8               	movwf	tblptru,c
  1837   00443E                     	endif
  1838   00443E  D802               	call	u3528
  1839   004440  EF2F  F022         	goto	u3529
  1840   004444                     u3528:
  1841   004444  0005               	push	
  1842   004446  6EFA               	movwf	pclath,c
  1843   004448  0009               	tblrd		*+
  1844   00444A  50F5               	movf	tablat,w,c
  1845   00444C  6EFD               	movwf	tosl,c
  1846   00444E  0009               	tblrd		*+
  1847   004450  50F5               	movf	tablat,w,c
  1848   004452  6EFE               	movwf	tosh,c
  1849   004454  0009               	tblrd		*+
  1850   004456  50F5               	movf	tablat,w,c
  1851   004458  6EFF               	movwf	tosu,c
  1852   00445A  50FA               	movf	pclath,w,c
  1853   00445C  0012               	return		;indir
  1854   00445E                     u3529:
  1855   00445E                     
  1856                           ;main.c: 120:     _delay((unsigned long)((50)*(64000000/4000000.0)));
  1857   00445E  0EA0               	movlw	160
  1858   004460                     u4147:
  1859   004460  D000               	nop2	
  1860   004462  2EE8               	decfsz	wreg,f,c
  1861   004464  D7FD               	bra	u4147
  1862   004466                     
  1863                           ;main.c: 122:     SPI2.Open(SPI2_DEFAULT);
  1864   004466  0E55               	movlw	low (_SPI2+6)
  1865   004468  6EF6               	movwf	tblptrl,c
  1866   00446A  0E40               	movlw	high (_SPI2+6)
  1867   00446C  6EF7               	movwf	tblptrh,c
  1868   00446E                     	if	0	;tblptru may be non-zero
  1869   00446E                     	endif
  1870   00446E                     	if	1	;Program memory is > 0xFFFF, there are 3 active tblptr bytes
  1871   00446E  0E00               	movlw	low (__mediumconst shr (0+16))
  1872   004470  6EF8               	movwf	tblptru,c
  1873   004472                     	endif
  1874   004472  D802               	call	u3538
  1875   004474  EF4A  F022         	goto	u3539
  1876   004478                     u3538:
  1877   004478  0005               	push	
  1878   00447A  6EFA               	movwf	pclath,c
  1879   00447C  0009               	tblrd		*+
  1880   00447E  50F5               	movf	tablat,w,c
  1881   004480  6EFD               	movwf	tosl,c
  1882   004482  0009               	tblrd		*+
  1883   004484  50F5               	movf	tablat,w,c
  1884   004486  6EFE               	movwf	tosh,c
  1885   004488  0009               	tblrd		*+
  1886   00448A  50F5               	movf	tablat,w,c
  1887   00448C  6EFF               	movwf	tosu,c
  1888   00448E  50FA               	movf	pclath,w,c
  1889   004490  0E00               	movlw	0
  1890   004492  0012               	return		;indir
  1891   004494                     u3539:
  1892   004494                     
  1893                           ;main.c: 123:     _delay((unsigned long)((50)*(64000000/4000000.0)));
  1894   004494  0EA0               	movlw	160
  1895   004496                     u4157:
  1896   004496  D000               	nop2	
  1897   004498  2EE8               	decfsz	wreg,f,c
  1898   00449A  D7FD               	bra	u4157
  1899   00449C  92BE               	bcf	190,1,c	;volatile
  1900   00449E                     
  1901                           ;main.c: 125:     _delay((unsigned long)((50)*(64000000/4000000.0)));
  1902   00449E  0EA0               	movlw	160
  1903   0044A0                     u4167:
  1904   0044A0  D000               	nop2	
  1905   0044A2  2EE8               	decfsz	wreg,f,c
  1906   0044A4  D7FD               	bra	u4167
  1907   0044A6                     
  1908                           ;main.c: 126:     SPI2.ByteExchange(0x00);
  1909   0044A6  0E61               	movlw	low (_SPI2+18)
  1910   0044A8  6EF6               	movwf	tblptrl,c
  1911   0044AA  0E40               	movlw	high (_SPI2+18)
  1912   0044AC  6EF7               	movwf	tblptrh,c
  1913   0044AE                     	if	0	;tblptru may be non-zero
  1914   0044AE                     	endif
  1915   0044AE                     	if	1	;Program memory is > 0xFFFF, there are 3 active tblptr bytes
  1916   0044AE  0E00               	movlw	low (__mediumconst shr (0+16))
  1917   0044B0  6EF8               	movwf	tblptru,c
  1918   0044B2                     	endif
  1919   0044B2  D802               	call	u3548
  1920   0044B4  EF6A  F022         	goto	u3549
  1921   0044B8                     u3548:
  1922   0044B8  0005               	push	
  1923   0044BA  6EFA               	movwf	pclath,c
  1924   0044BC  0009               	tblrd		*+
  1925   0044BE  50F5               	movf	tablat,w,c
  1926   0044C0  6EFD               	movwf	tosl,c
  1927   0044C2  0009               	tblrd		*+
  1928   0044C4  50F5               	movf	tablat,w,c
  1929   0044C6  6EFE               	movwf	tosh,c
  1930   0044C8  0009               	tblrd		*+
  1931   0044CA  50F5               	movf	tablat,w,c
  1932   0044CC  6EFF               	movwf	tosu,c
  1933   0044CE  50FA               	movf	pclath,w,c
  1934   0044D0  0E00               	movlw	0
  1935   0044D2  0012               	return		;indir
  1936   0044D4                     u3549:
  1937   0044D4                     
  1938                           ;main.c: 127:     SPI2.ByteExchange(0xFB);
  1939   0044D4  0E61               	movlw	low (_SPI2+18)
  1940   0044D6  6EF6               	movwf	tblptrl,c
  1941   0044D8  0E40               	movlw	high (_SPI2+18)
  1942   0044DA  6EF7               	movwf	tblptrh,c
  1943   0044DC                     	if	0	;tblptru may be non-zero
  1944   0044DC                     	endif
  1945   0044DC                     	if	1	;Program memory is > 0xFFFF, there are 3 active tblptr bytes
  1946   0044DC  0E00               	movlw	low (__mediumconst shr (0+16))
  1947   0044DE  6EF8               	movwf	tblptru,c
  1948   0044E0                     	endif
  1949   0044E0  D802               	call	u3558
  1950   0044E2  EF81  F022         	goto	u3559
  1951   0044E6                     u3558:
  1952   0044E6  0005               	push	
  1953   0044E8  6EFA               	movwf	pclath,c
  1954   0044EA  0009               	tblrd		*+
  1955   0044EC  50F5               	movf	tablat,w,c
  1956   0044EE  6EFD               	movwf	tosl,c
  1957   0044F0  0009               	tblrd		*+
  1958   0044F2  50F5               	movf	tablat,w,c
  1959   0044F4  6EFE               	movwf	tosh,c
  1960   0044F6  0009               	tblrd		*+
  1961   0044F8  50F5               	movf	tablat,w,c
  1962   0044FA  6EFF               	movwf	tosu,c
  1963   0044FC  50FA               	movf	pclath,w,c
  1964   0044FE  0EFB               	movlw	251
  1965   004500  0012               	return		;indir
  1966   004502                     u3559:
  1967   004502                     
  1968                           ;main.c: 128:     _delay((unsigned long)((500)*(64000000/4000000.0)));
  1969   004502  0E0B               	movlw	11
  1970   004504  6E05               	movwf	??_setup_Poti^(0+1280),c
  1971   004506  0E62               	movlw	98
  1972   004508                     u4177:
  1973   004508  2EE8               	decfsz	wreg,f,c
  1974   00450A  D7FE               	bra	u4177
  1975   00450C  2E05               	decfsz	??_setup_Poti^(0+1280),f,c
  1976   00450E  D7FC               	bra	u4177
  1977   004510  D000               	nop2	
  1978   004512  82BE               	bsf	190,1,c	;volatile
  1979   004514                     
  1980                           ;main.c: 130:     _delay((unsigned long)((50)*(64000000/4000000.0)));
  1981   004514  0EA0               	movlw	160
  1982   004516                     u4187:
  1983   004516  D000               	nop2	
  1984   004518  2EE8               	decfsz	wreg,f,c
  1985   00451A  D7FD               	bra	u4187
  1986   00451C                     
  1987                           ;main.c: 131:     SPI2.Close();
  1988   00451C  0E52               	movlw	low (_SPI2+3)
  1989   00451E  6EF6               	movwf	tblptrl,c
  1990   004520  0E40               	movlw	high (_SPI2+3)
  1991   004522  6EF7               	movwf	tblptrh,c
  1992   004524                     	if	0	;tblptru may be non-zero
  1993   004524                     	endif
  1994   004524                     	if	1	;Program memory is > 0xFFFF, there are 3 active tblptr bytes
  1995   004524  0E00               	movlw	low (__mediumconst shr (0+16))
  1996   004526  6EF8               	movwf	tblptru,c
  1997   004528                     	endif
  1998   004528  D802               	call	u3568
  1999   00452A  EFA4  F022         	goto	u3569
  2000   00452E                     u3568:
  2001   00452E  0005               	push	
  2002   004530  6EFA               	movwf	pclath,c
  2003   004532  0009               	tblrd		*+
  2004   004534  50F5               	movf	tablat,w,c
  2005   004536  6EFD               	movwf	tosl,c
  2006   004538  0009               	tblrd		*+
  2007   00453A  50F5               	movf	tablat,w,c
  2008   00453C  6EFE               	movwf	tosh,c
  2009   00453E  0009               	tblrd		*+
  2010   004540  50F5               	movf	tablat,w,c
  2011   004542  6EFF               	movwf	tosu,c
  2012   004544  50FA               	movf	pclath,w,c
  2013   004546  0012               	return		;indir
  2014   004548                     u3569:
  2015                           
  2016                           ;main.c: 132:     _delay((unsigned long)((50)*(64000000/4000000.0)));
  2017   004548  0EA0               	movlw	160
  2018   00454A                     u4197:
  2019   00454A  D000               	nop2	
  2020   00454C  2EE8               	decfsz	wreg,f,c
  2021   00454E  D7FD               	bra	u4197
  2022   004550                     
  2023                           ;main.c: 134:     SPI2.Open(SPI2_DEFAULT);
  2024   004550  0E55               	movlw	low (_SPI2+6)
  2025   004552  6EF6               	movwf	tblptrl,c
  2026   004554  0E40               	movlw	high (_SPI2+6)
  2027   004556  6EF7               	movwf	tblptrh,c
  2028   004558                     	if	0	;tblptru may be non-zero
  2029   004558                     	endif
  2030   004558                     	if	1	;Program memory is > 0xFFFF, there are 3 active tblptr bytes
  2031   004558  0E00               	movlw	low (__mediumconst shr (0+16))
  2032   00455A  6EF8               	movwf	tblptru,c
  2033   00455C                     	endif
  2034   00455C  D802               	call	u3578
  2035   00455E  EFBF  F022         	goto	u3579
  2036   004562                     u3578:
  2037   004562  0005               	push	
  2038   004564  6EFA               	movwf	pclath,c
  2039   004566  0009               	tblrd		*+
  2040   004568  50F5               	movf	tablat,w,c
  2041   00456A  6EFD               	movwf	tosl,c
  2042   00456C  0009               	tblrd		*+
  2043   00456E  50F5               	movf	tablat,w,c
  2044   004570  6EFE               	movwf	tosh,c
  2045   004572  0009               	tblrd		*+
  2046   004574  50F5               	movf	tablat,w,c
  2047   004576  6EFF               	movwf	tosu,c
  2048   004578  50FA               	movf	pclath,w,c
  2049   00457A  0E00               	movlw	0
  2050   00457C  0012               	return		;indir
  2051   00457E                     u3579:
  2052   00457E                     
  2053                           ;main.c: 135:     _delay((unsigned long)((50)*(64000000/4000.0)));
  2054   00457E  0E05               	movlw	5
  2055   004580  6E06               	movwf	(??_setup_Poti+1)^(0+1280),c
  2056   004582  0E0F               	movlw	15
  2057   004584  6E05               	movwf	??_setup_Poti^(0+1280),c
  2058   004586  0EF1               	movlw	241
  2059   004588                     u4207:
  2060   004588  2EE8               	decfsz	wreg,f,c
  2061   00458A  D7FE               	bra	u4207
  2062   00458C  2E05               	decfsz	??_setup_Poti^(0+1280),f,c
  2063   00458E  D7FC               	bra	u4207
  2064   004590  2E06               	decfsz	(??_setup_Poti+1)^(0+1280),f,c
  2065   004592  D7FA               	bra	u4207
  2066   004594  F000               	nop	
  2067   004596  92BE               	bcf	190,1,c	;volatile
  2068   004598                     
  2069                           ;main.c: 137:     _delay((unsigned long)((50)*(64000000/4000000.0)));
  2070   004598  0EA0               	movlw	160
  2071   00459A                     u4217:
  2072   00459A  D000               	nop2	
  2073   00459C  2EE8               	decfsz	wreg,f,c
  2074   00459E  D7FD               	bra	u4217
  2075   0045A0                     
  2076                           ;main.c: 138:     SPI2.ByteExchange(0x10);
  2077   0045A0  0E61               	movlw	low (_SPI2+18)
  2078   0045A2  6EF6               	movwf	tblptrl,c
  2079   0045A4  0E40               	movlw	high (_SPI2+18)
  2080   0045A6  6EF7               	movwf	tblptrh,c
  2081   0045A8                     	if	0	;tblptru may be non-zero
  2082   0045A8                     	endif
  2083   0045A8                     	if	1	;Program memory is > 0xFFFF, there are 3 active tblptr bytes
  2084   0045A8  0E00               	movlw	low (__mediumconst shr (0+16))
  2085   0045AA  6EF8               	movwf	tblptru,c
  2086   0045AC                     	endif
  2087   0045AC  D802               	call	u3588
  2088   0045AE  EFE7  F022         	goto	u3589
  2089   0045B2                     u3588:
  2090   0045B2  0005               	push	
  2091   0045B4  6EFA               	movwf	pclath,c
  2092   0045B6  0009               	tblrd		*+
  2093   0045B8  50F5               	movf	tablat,w,c
  2094   0045BA  6EFD               	movwf	tosl,c
  2095   0045BC  0009               	tblrd		*+
  2096   0045BE  50F5               	movf	tablat,w,c
  2097   0045C0  6EFE               	movwf	tosh,c
  2098   0045C2  0009               	tblrd		*+
  2099   0045C4  50F5               	movf	tablat,w,c
  2100   0045C6  6EFF               	movwf	tosu,c
  2101   0045C8  50FA               	movf	pclath,w,c
  2102   0045CA  0E10               	movlw	16
  2103   0045CC  0012               	return		;indir
  2104   0045CE                     u3589:
  2105   0045CE                     
  2106                           ;main.c: 139:     SPI2.ByteExchange(0xFB);
  2107   0045CE  0E61               	movlw	low (_SPI2+18)
  2108   0045D0  6EF6               	movwf	tblptrl,c
  2109   0045D2  0E40               	movlw	high (_SPI2+18)
  2110   0045D4  6EF7               	movwf	tblptrh,c
  2111   0045D6                     	if	0	;tblptru may be non-zero
  2112   0045D6                     	endif
  2113   0045D6                     	if	1	;Program memory is > 0xFFFF, there are 3 active tblptr bytes
  2114   0045D6  0E00               	movlw	low (__mediumconst shr (0+16))
  2115   0045D8  6EF8               	movwf	tblptru,c
  2116   0045DA                     	endif
  2117   0045DA  D802               	call	u3598
  2118   0045DC  EFFE  F022         	goto	u3599
  2119   0045E0                     u3598:
  2120   0045E0  0005               	push	
  2121   0045E2  6EFA               	movwf	pclath,c
  2122   0045E4  0009               	tblrd		*+
  2123   0045E6  50F5               	movf	tablat,w,c
  2124   0045E8  6EFD               	movwf	tosl,c
  2125   0045EA  0009               	tblrd		*+
  2126   0045EC  50F5               	movf	tablat,w,c
  2127   0045EE  6EFE               	movwf	tosh,c
  2128   0045F0  0009               	tblrd		*+
  2129   0045F2  50F5               	movf	tablat,w,c
  2130   0045F4  6EFF               	movwf	tosu,c
  2131   0045F6  50FA               	movf	pclath,w,c
  2132   0045F8  0EFB               	movlw	251
  2133   0045FA  0012               	return		;indir
  2134   0045FC                     u3599:
  2135   0045FC                     
  2136                           ;main.c: 140:     _delay((unsigned long)((500)*(64000000/4000000.0)));
  2137   0045FC  0E0B               	movlw	11
  2138   0045FE  6E05               	movwf	??_setup_Poti^(0+1280),c
  2139   004600  0E62               	movlw	98
  2140   004602                     u4227:
  2141   004602  2EE8               	decfsz	wreg,f,c
  2142   004604  D7FE               	bra	u4227
  2143   004606  2E05               	decfsz	??_setup_Poti^(0+1280),f,c
  2144   004608  D7FC               	bra	u4227
  2145   00460A  D000               	nop2	
  2146   00460C  82BE               	bsf	190,1,c	;volatile
  2147   00460E                     
  2148                           ;main.c: 142:     _delay((unsigned long)((50)*(64000000/4000000.0)));
  2149   00460E  0EA0               	movlw	160
  2150   004610                     u4237:
  2151   004610  D000               	nop2	
  2152   004612  2EE8               	decfsz	wreg,f,c
  2153   004614  D7FD               	bra	u4237
  2154   004616                     
  2155                           ;main.c: 143:     SPI2.Close();
  2156   004616  0E52               	movlw	low (_SPI2+3)
  2157   004618  6EF6               	movwf	tblptrl,c
  2158   00461A  0E40               	movlw	high (_SPI2+3)
  2159   00461C  6EF7               	movwf	tblptrh,c
  2160   00461E                     	if	0	;tblptru may be non-zero
  2161   00461E                     	endif
  2162   00461E                     	if	1	;Program memory is > 0xFFFF, there are 3 active tblptr bytes
  2163   00461E  0E00               	movlw	low (__mediumconst shr (0+16))
  2164   004620  6EF8               	movwf	tblptru,c
  2165   004622                     	endif
  2166   004622  D802               	call	u3608
  2167   004624  EF21  F023         	goto	u3609
  2168   004628                     u3608:
  2169   004628  0005               	push	
  2170   00462A  6EFA               	movwf	pclath,c
  2171   00462C  0009               	tblrd		*+
  2172   00462E  50F5               	movf	tablat,w,c
  2173   004630  6EFD               	movwf	tosl,c
  2174   004632  0009               	tblrd		*+
  2175   004634  50F5               	movf	tablat,w,c
  2176   004636  6EFE               	movwf	tosh,c
  2177   004638  0009               	tblrd		*+
  2178   00463A  50F5               	movf	tablat,w,c
  2179   00463C  6EFF               	movwf	tosu,c
  2180   00463E  50FA               	movf	pclath,w,c
  2181   004640  0012               	return		;indir
  2182   004642                     u3609:
  2183   004642  0012               	return		;funcret
  2184   004644                     __end_of_setup_Poti:
  2185                           	callstack 0
  2186                           
  2187 ;; *************** function _SPI2_Open *****************
  2188 ;; Defined at:
  2189 ;;		line 85 in file "mcc_generated_files/spi/src/spi2.c"
  2190 ;; Parameters:    Size  Location     Type
  2191 ;;  spiConfigInd    1    wreg     unsigned char 
  2192 ;; Auto vars:     Size  Location     Type
  2193 ;;  spiConfigInd    1    3[COMRAM] unsigned char 
  2194 ;; Return value:  Size  Location     Type
  2195 ;;                  1    wreg      _Bool 
  2196 ;; Registers used:
  2197 ;;		wreg, status,2, status,0, tblptrl, tblptrh, tblptru, prodl, prodh
  2198 ;; Tracked objects:
  2199 ;;		On entry : 0/0
  2200 ;;		On exit  : 0/0
  2201 ;;		Unchanged: 0/0
  2202 ;; Data sizes:     COMRAM   BANK5   BANK6   BANK7   BANK8   BANK9  BANK10  BANK11  BANK12  BANK13  BANK14  BANK15  BANK1
      +6  BANK17  BANK18  BANK19  BANK20  BANK21  BANK22  BANK23  BANK24  BANK25  BANK26  BANK27  BANK28  BANK29  BANK30  BANK3
      +1  BANK32  BANK33  BANK34  BANK35  BANK36  BANK37  BANK38  BANK39  BANK40  BANK41  BANK42  BANK43  BANK44  BANK45  BANK4
      +6  BANK47  BANK48  BANK49  BANK50  BANK51  BANK52  BANK53  BANK54
  2203 ;;      Params:         0       0       0       0       0       0       0       0       0       0       0       0       
      +0       0       0       0       0       0       0       0       0       0       0       0       0       0       0       
      +0       0       0       0       0       0       0       0       0       0       0       0       0       0       0       
      +0       0       0       0       0       0       0       0       0
  2204 ;;      Locals:         1       0       0       0       0       0       0       0       0       0       0       0       
      +0       0       0       0       0       0       0       0       0       0       0       0       0       0       0       
      +0       0       0       0       0       0       0       0       0       0       0       0       0       0       0       
      +0       0       0       0       0       0       0       0       0
  2205 ;;      Temps:          1       0       0       0       0       0       0       0       0       0       0       0       
      +0       0       0       0       0       0       0       0       0       0       0       0       0       0       0       
      +0       0       0       0       0       0       0       0       0       0       0       0       0       0       0       
      +0       0       0       0       0       0       0       0       0
  2206 ;;      Totals:         2       0       0       0       0       0       0       0       0       0       0       0       
      +0       0       0       0       0       0       0       0       0       0       0       0       0       0       0       
      +0       0       0       0       0       0       0       0       0       0       0       0       0       0       0       
      +0       0       0       0       0       0       0       0       0
  2207 ;;Total ram usage:        2 bytes
  2208 ;; Hardware stack levels used: 1
  2209 ;; Hardware stack levels required when called: 3
  2210 ;; This function calls:
  2211 ;;		Nothing
  2212 ;; This function is called by:
  2213 ;;		_setup_Poti
  2214 ;;		_transmit_P
  2215 ;; This function uses a non-reentrant model
  2216 ;;
  2217                           
  2218                           	psect	text3
  2219   00519C                     __ptext3:
  2220                           	callstack 0
  2221   00519C                     _SPI2_Open:
  2222                           	callstack 122
  2223                           
  2224                           ;incstack = 0
  2225                           ;SPI2_Open@spiConfigIndex stored from wreg
  2226   00519C  6E04               	movwf	SPI2_Open@spiConfigIndex^(0+1280),c
  2227   00519E                     
  2228                           ;mcc_generated_files/spi/src/spi2.c: 85: _Bool SPI2_Open(uint8_t spiConfigIndex);mcc_gen
      +                          erated_files/spi/src/spi2.c: 86: {;mcc_generated_files/spi/src/spi2.c: 87:     if(!SPI2C
      +                          ON0bits.EN)
  2229   00519E  0100               	movlb	0	; () banked
  2230   0051A0  BF91               	btfsc	145,7,b	;volatile
  2231   0051A2  EFD5  F028         	goto	u3281
  2232   0051A6  EFD7  F028         	goto	u3280
  2233   0051AA                     u3281:
  2234   0051AA  EF39  F029         	goto	l411
  2235   0051AE                     u3280:
  2236   0051AE                     
  2237                           ; BSR set to: 0
  2238                           ;mcc_generated_files/spi/src/spi2.c: 88:     {;mcc_generated_files/spi/src/spi2.c: 89:  
      +                                 SPI2CON0 = spi2_configuration[spiConfigIndex].con0;
  2239   0051AE  5004               	movf	SPI2_Open@spiConfigIndex^(0+1280),w,c
  2240   0051B0  0D05               	mullw	5
  2241   0051B2  0E85               	movlw	low _spi2_configuration
  2242   0051B4  24F3               	addwf	243,w,c
  2243   0051B6  6EF6               	movwf	tblptrl,c
  2244   0051B8  0E40               	movlw	high _spi2_configuration
  2245   0051BA  20F4               	addwfc	244,w,c
  2246   0051BC  6EF7               	movwf	tblptrh,c
  2247   0051BE                     	if	1	;There are 3 active tblptr bytes
  2248   0051BE  6AF8               	clrf	tblptru,c
  2249   0051C0  0E00               	movlw	low (__mediumconst shr (0+16))
  2250   0051C2  22F8               	addwfc	tblptru,f,c
  2251   0051C4                     	endif
  2252   0051C4  0008               	tblrd		*
  2253   0051C6  C4F5 F091          	movff	tablat,145	;volatile
  2254                           
  2255                           ;mcc_generated_files/spi/src/spi2.c: 90:         SPI2CON1 = spi2_configuration[spiConfig
      +                          Index].con1;
  2256   0051CA  5004               	movf	SPI2_Open@spiConfigIndex^(0+1280),w,c
  2257   0051CC  0D05               	mullw	5
  2258   0051CE  0E01               	movlw	1
  2259   0051D0  26F3               	addwf	243,f,c
  2260   0051D2  0E00               	movlw	0
  2261   0051D4  22F4               	addwfc	244,f,c
  2262   0051D6  0E85               	movlw	low _spi2_configuration
  2263   0051D8  24F3               	addwf	243,w,c
  2264   0051DA  6EF6               	movwf	tblptrl,c
  2265   0051DC  0E40               	movlw	high _spi2_configuration
  2266   0051DE  20F4               	addwfc	244,w,c
  2267   0051E0  6EF7               	movwf	tblptrh,c
  2268   0051E2                     	if	1	;There are 3 active tblptr bytes
  2269   0051E2  6AF8               	clrf	tblptru,c
  2270   0051E4  0E00               	movlw	low (__mediumconst shr (0+16))
  2271   0051E6  22F8               	addwfc	tblptru,f,c
  2272   0051E8                     	endif
  2273   0051E8  0008               	tblrd		*
  2274   0051EA  C4F5 F092          	movff	tablat,146	;volatile
  2275                           
  2276                           ;mcc_generated_files/spi/src/spi2.c: 91:         SPI2CON2 = spi2_configuration[spiConfig
      +                          Index].con2 | (0x1 | 0x2);
  2277   0051EE  5004               	movf	SPI2_Open@spiConfigIndex^(0+1280),w,c
  2278   0051F0  0D05               	mullw	5
  2279   0051F2  0E02               	movlw	2
  2280   0051F4  26F3               	addwf	243,f,c
  2281   0051F6  0E00               	movlw	0
  2282   0051F8  22F4               	addwfc	244,f,c
  2283   0051FA  0E85               	movlw	low _spi2_configuration
  2284   0051FC  24F3               	addwf	243,w,c
  2285   0051FE  6EF6               	movwf	tblptrl,c
  2286   005200  0E40               	movlw	high _spi2_configuration
  2287   005202  20F4               	addwfc	244,w,c
  2288   005204  6EF7               	movwf	tblptrh,c
  2289   005206                     	if	1	;There are 3 active tblptr bytes
  2290   005206  6AF8               	clrf	tblptru,c
  2291   005208  0E00               	movlw	low (__mediumconst shr (0+16))
  2292   00520A  22F8               	addwfc	tblptru,f,c
  2293   00520C                     	endif
  2294   00520C  0008               	tblrd		*
  2295   00520E  50F5               	movf	tablat,w,c
  2296   005210  0903               	iorlw	3
  2297   005212  6F93               	movwf	147,b	;volatile
  2298   005214                     
  2299                           ; BSR set to: 0
  2300                           ;mcc_generated_files/spi/src/spi2.c: 92:         SPI2CLK = 0x00;
  2301   005214  0E00               	movlw	0
  2302   005216  6F99               	movwf	153,b	;volatile
  2303   005218                     
  2304                           ; BSR set to: 0
  2305                           ;mcc_generated_files/spi/src/spi2.c: 93:         SPI2BAUD = spi2_configuration[spiConfig
      +                          Index].baud;
  2306   005218  5004               	movf	SPI2_Open@spiConfigIndex^(0+1280),w,c
  2307   00521A  0D05               	mullw	5
  2308   00521C  0E03               	movlw	3
  2309   00521E  26F3               	addwf	243,f,c
  2310   005220  0E00               	movlw	0
  2311   005222  22F4               	addwfc	244,f,c
  2312   005224  0E85               	movlw	low _spi2_configuration
  2313   005226  24F3               	addwf	243,w,c
  2314   005228  6EF6               	movwf	tblptrl,c
  2315   00522A  0E40               	movlw	high _spi2_configuration
  2316   00522C  20F4               	addwfc	244,w,c
  2317   00522E  6EF7               	movwf	tblptrh,c
  2318   005230                     	if	1	;There are 3 active tblptr bytes
  2319   005230  6AF8               	clrf	tblptru,c
  2320   005232  0E00               	movlw	low (__mediumconst shr (0+16))
  2321   005234  22F8               	addwfc	tblptru,f,c
  2322   005236                     	endif
  2323   005236  0008               	tblrd		*
  2324   005238  C4F5 F096          	movff	tablat,150	;volatile
  2325   00523C                     
  2326                           ; BSR set to: 0
  2327                           ;mcc_generated_files/spi/src/spi2.c: 94:         TRISBbits.TRISB3 = spi2_configuration[s
      +                          piConfigIndex].operation;
  2328   00523C  5004               	movf	SPI2_Open@spiConfigIndex^(0+1280),w,c
  2329   00523E  0D05               	mullw	5
  2330   005240  0E04               	movlw	4
  2331   005242  26F3               	addwf	243,f,c
  2332   005244  0E00               	movlw	0
  2333   005246  22F4               	addwfc	244,f,c
  2334   005248  0E85               	movlw	low _spi2_configuration
  2335   00524A  24F3               	addwf	243,w,c
  2336   00524C  6EF6               	movwf	tblptrl,c
  2337   00524E  0E40               	movlw	high _spi2_configuration
  2338   005250  20F4               	addwfc	244,w,c
  2339   005252  6EF7               	movwf	tblptrh,c
  2340   005254                     	if	1	;There are 3 active tblptr bytes
  2341   005254  6AF8               	clrf	tblptru,c
  2342   005256  0E00               	movlw	low (__mediumconst shr (0+16))
  2343   005258  22F8               	addwfc	tblptru,f,c
  2344   00525A                     	endif
  2345   00525A  0008               	tblrd		*
  2346   00525C  C4F5 F503          	movff	tablat,??_SPI2_Open
  2347   005260  4603               	rlncf	??_SPI2_Open^(0+1280),f,c
  2348   005262  4603               	rlncf	??_SPI2_Open^(0+1280),f,c
  2349   005264  4603               	rlncf	??_SPI2_Open^(0+1280),f,c
  2350   005266  50C7               	movf	199,w,c	;volatile
  2351   005268  1803               	xorwf	??_SPI2_Open^(0+1280),w,c
  2352   00526A  0BF7               	andlw	-9
  2353   00526C  1803               	xorwf	??_SPI2_Open^(0+1280),w,c
  2354   00526E  6EC7               	movwf	199,c	;volatile
  2355   005270                     
  2356                           ; BSR set to: 0
  2357                           ;mcc_generated_files/spi/src/spi2.c: 95:         SPI2CON0bits.EN = 1;
  2358   005270  8F91               	bsf	145,7,b	;volatile
  2359   005272                     l411:
  2360                           
  2361                           ; BSR set to: 0
  2362   005272  0012               	return		;funcret
  2363   005274                     __end_of_SPI2_Open:
  2364                           	callstack 0
  2365                           
  2366 ;; *************** function _SPI2_Close *****************
  2367 ;; Defined at:
  2368 ;;		line 101 in file "mcc_generated_files/spi/src/spi2.c"
  2369 ;; Parameters:    Size  Location     Type
  2370 ;;		None
  2371 ;; Auto vars:     Size  Location     Type
  2372 ;;		None
  2373 ;; Return value:  Size  Location     Type
  2374 ;;                  1    wreg      void 
  2375 ;; Registers used:
  2376 ;;		None
  2377 ;; Tracked objects:
  2378 ;;		On entry : 0/0
  2379 ;;		On exit  : 0/0
  2380 ;;		Unchanged: 0/0
  2381 ;; Data sizes:     COMRAM   BANK5   BANK6   BANK7   BANK8   BANK9  BANK10  BANK11  BANK12  BANK13  BANK14  BANK15  BANK1
      +6  BANK17  BANK18  BANK19  BANK20  BANK21  BANK22  BANK23  BANK24  BANK25  BANK26  BANK27  BANK28  BANK29  BANK30  BANK3
      +1  BANK32  BANK33  BANK34  BANK35  BANK36  BANK37  BANK38  BANK39  BANK40  BANK41  BANK42  BANK43  BANK44  BANK45  BANK4
      +6  BANK47  BANK48  BANK49  BANK50  BANK51  BANK52  BANK53  BANK54
  2382 ;;      Params:         0       0       0       0       0       0       0       0       0       0       0       0       
      +0       0       0       0       0       0       0       0       0       0       0       0       0       0       0       
      +0       0       0       0       0       0       0       0       0       0       0       0       0       0       0       
      +0       0       0       0       0       0       0       0       0
  2383 ;;      Locals:         0       0       0       0       0       0       0       0       0       0       0       0       
      +0       0       0       0       0       0       0       0       0       0       0       0       0       0       0       
      +0       0       0       0       0       0       0       0       0       0       0       0       0       0       0       
      +0       0       0       0       0       0       0       0       0
  2384 ;;      Temps:          0       0       0       0       0       0       0       0       0       0       0       0       
      +0       0       0       0       0       0       0       0       0       0       0       0       0       0       0       
      +0       0       0       0       0       0       0       0       0       0       0       0       0       0       0       
      +0       0       0       0       0       0       0       0       0
  2385 ;;      Totals:         0       0       0       0       0       0       0       0       0       0       0       0       
      +0       0       0       0       0       0       0       0       0       0       0       0       0       0       0       
      +0       0       0       0       0       0       0       0       0       0       0       0       0       0       0       
      +0       0       0       0       0       0       0       0       0
  2386 ;;Total ram usage:        0 bytes
  2387 ;; Hardware stack levels used: 1
  2388 ;; Hardware stack levels required when called: 3
  2389 ;; This function calls:
  2390 ;;		Nothing
  2391 ;; This function is called by:
  2392 ;;		_setup_Poti
  2393 ;;		_transmit_P
  2394 ;; This function uses a non-reentrant model
  2395 ;;
  2396                           
  2397                           	psect	text4
  2398   005B16                     __ptext4:
  2399                           	callstack 0
  2400   005B16                     _SPI2_Close:
  2401                           	callstack 122
  2402   005B16                     
  2403                           ;mcc_generated_files/spi/src/spi2.c: 103:     SPI2CON0bits.EN = 0;
  2404   005B16  0100               	movlb	0	; () banked
  2405   005B18  9F91               	bcf	145,7,b	;volatile
  2406   005B1A                     
  2407                           ; BSR set to: 0
  2408   005B1A  0012               	return		;funcret
  2409   005B1C                     __end_of_SPI2_Close:
  2410                           	callstack 0
  2411                           
  2412 ;; *************** function _SPI2_ByteExchange *****************
  2413 ;; Defined at:
  2414 ;;		line 106 in file "mcc_generated_files/spi/src/spi2.c"
  2415 ;; Parameters:    Size  Location     Type
  2416 ;;  data            1    wreg     unsigned char 
  2417 ;; Auto vars:     Size  Location     Type
  2418 ;;  data            1    2[COMRAM] unsigned char 
  2419 ;; Return value:  Size  Location     Type
  2420 ;;                  1    wreg      unsigned char 
  2421 ;; Registers used:
  2422 ;;		wreg, status,2
  2423 ;; Tracked objects:
  2424 ;;		On entry : 0/0
  2425 ;;		On exit  : 0/0
  2426 ;;		Unchanged: 0/0
  2427 ;; Data sizes:     COMRAM   BANK5   BANK6   BANK7   BANK8   BANK9  BANK10  BANK11  BANK12  BANK13  BANK14  BANK15  BANK1
      +6  BANK17  BANK18  BANK19  BANK20  BANK21  BANK22  BANK23  BANK24  BANK25  BANK26  BANK27  BANK28  BANK29  BANK30  BANK3
      +1  BANK32  BANK33  BANK34  BANK35  BANK36  BANK37  BANK38  BANK39  BANK40  BANK41  BANK42  BANK43  BANK44  BANK45  BANK4
      +6  BANK47  BANK48  BANK49  BANK50  BANK51  BANK52  BANK53  BANK54
  2428 ;;      Params:         0       0       0       0       0       0       0       0       0       0       0       0       
      +0       0       0       0       0       0       0       0       0       0       0       0       0       0       0       
      +0       0       0       0       0       0       0       0       0       0       0       0       0       0       0       
      +0       0       0       0       0       0       0       0       0
  2429 ;;      Locals:         1       0       0       0       0       0       0       0       0       0       0       0       
      +0       0       0       0       0       0       0       0       0       0       0       0       0       0       0       
      +0       0       0       0       0       0       0       0       0       0       0       0       0       0       0       
      +0       0       0       0       0       0       0       0       0
  2430 ;;      Temps:          0       0       0       0       0       0       0       0       0       0       0       0       
      +0       0       0       0       0       0       0       0       0       0       0       0       0       0       0       
      +0       0       0       0       0       0       0       0       0       0       0       0       0       0       0       
      +0       0       0       0       0       0       0       0       0
  2431 ;;      Totals:         1       0       0       0       0       0       0       0       0       0       0       0       
      +0       0       0       0       0       0       0       0       0       0       0       0       0       0       0       
      +0       0       0       0       0       0       0       0       0       0       0       0       0       0       0       
      +0       0       0       0       0       0       0       0       0
  2432 ;;Total ram usage:        1 bytes
  2433 ;; Hardware stack levels used: 1
  2434 ;; Hardware stack levels required when called: 3
  2435 ;; This function calls:
  2436 ;;		Nothing
  2437 ;; This function is called by:
  2438 ;;		_SPI2_BufferWrite
  2439 ;;		_SPI2_BufferRead
  2440 ;;		_SPI2_ExchangeByte
  2441 ;;		_setup_Poti
  2442 ;;		_transmit_P
  2443 ;; This function uses a non-reentrant model
  2444 ;;
  2445                           
  2446                           	psect	text5
  2447   00598C                     __ptext5:
  2448                           	callstack 0
  2449   00598C                     _SPI2_ByteExchange:
  2450                           	callstack 122
  2451                           
  2452                           ; BSR set to: 0
  2453                           ;incstack = 0
  2454                           ;SPI2_ByteExchange@data stored from wreg
  2455   00598C  6E03               	movwf	SPI2_ByteExchange@data^(0+1280),c
  2456   00598E                     
  2457                           ;mcc_generated_files/spi/src/spi2.c: 106: uint8_t SPI2_ByteExchange(uint8_t data);mcc_ge
      +                          nerated_files/spi/src/spi2.c: 107: {;mcc_generated_files/spi/src/spi2.c: 108:     SPI2TC
      +                          NTL = 1;
  2458   00598E  0E01               	movlw	1
  2459   005990  0100               	movlb	0	; () banked
  2460   005992  6F8F               	movwf	143,b	;volatile
  2461   005994                     
  2462                           ; BSR set to: 0
  2463                           ;mcc_generated_files/spi/src/spi2.c: 109:     SPI2TXB = data;
  2464   005994  C503  F08E         	movff	SPI2_ByteExchange@data,142	;volatile
  2465   005998                     l417:
  2466   005998  A0B3               	btfss	179,0,c	;volatile
  2467   00599A  EFD1  F02C         	goto	u3291
  2468   00599E  EFD3  F02C         	goto	u3290
  2469   0059A2                     u3291:
  2470   0059A2  EFCC  F02C         	goto	l417
  2471   0059A6                     u3290:
  2472   0059A6                     
  2473                           ;mcc_generated_files/spi/src/spi2.c: 111:     return SPI2RXB;
  2474   0059A6  0100               	movlb	0	; () banked
  2475   0059A8  518D               	movf	141,w,b	;volatile
  2476   0059AA                     
  2477                           ; BSR set to: 0
  2478   0059AA  0012               	return		;funcret
  2479   0059AC                     __end_of_SPI2_ByteExchange:
  2480                           	callstack 0
  2481                           
  2482 ;; *************** function _linear_map *****************
  2483 ;; Defined at:
  2484 ;;		line 71 in file "main.c"
  2485 ;; Parameters:    Size  Location     Type
  2486 ;;  a               2   27[COMRAM] unsigned short 
  2487 ;;  b               2   29[COMRAM] unsigned short 
  2488 ;;  x               2   31[COMRAM] unsigned short 
  2489 ;;  y               2   33[COMRAM] unsigned short 
  2490 ;;  value           2   35[COMRAM] unsigned short 
  2491 ;; Auto vars:     Size  Location     Type
  2492 ;;  X               4   57[COMRAM] unsigned long 
  2493 ;;  A               4   53[COMRAM] unsigned long 
  2494 ;;  ret             4   49[COMRAM] unsigned long 
  2495 ;;  V               4   45[COMRAM] unsigned long 
  2496 ;;  Y               4   41[COMRAM] unsigned long 
  2497 ;;  B               4   37[COMRAM] unsigned long 
  2498 ;; Return value:  Size  Location     Type
  2499 ;;                  2   27[COMRAM] unsigned short 
  2500 ;; Registers used:
  2501 ;;		wreg, status,2, status,0, cstack
  2502 ;; Tracked objects:
  2503 ;;		On entry : 0/0
  2504 ;;		On exit  : 0/0
  2505 ;;		Unchanged: 0/0
  2506 ;; Data sizes:     COMRAM   BANK5   BANK6   BANK7   BANK8   BANK9  BANK10  BANK11  BANK12  BANK13  BANK14  BANK15  BANK1
      +6  BANK17  BANK18  BANK19  BANK20  BANK21  BANK22  BANK23  BANK24  BANK25  BANK26  BANK27  BANK28  BANK29  BANK30  BANK3
      +1  BANK32  BANK33  BANK34  BANK35  BANK36  BANK37  BANK38  BANK39  BANK40  BANK41  BANK42  BANK43  BANK44  BANK45  BANK4
      +6  BANK47  BANK48  BANK49  BANK50  BANK51  BANK52  BANK53  BANK54
  2507 ;;      Params:        10       0       0       0       0       0       0       0       0       0       0       0       
      +0       0       0       0       0       0       0       0       0       0       0       0       0       0       0       
      +0       0       0       0       0       0       0       0       0       0       0       0       0       0       0       
      +0       0       0       0       0       0       0       0       0
  2508 ;;      Locals:        24       0       0       0       0       0       0       0       0       0       0       0       
      +0       0       0       0       0       0       0       0       0       0       0       0       0       0       0       
      +0       0       0       0       0       0       0       0       0       0       0       0       0       0       0       
      +0       0       0       0       0       0       0       0       0
  2509 ;;      Temps:          0       0       0       0       0       0       0       0       0       0       0       0       
      +0       0       0       0       0       0       0       0       0       0       0       0       0       0       0       
      +0       0       0       0       0       0       0       0       0       0       0       0       0       0       0       
      +0       0       0       0       0       0       0       0       0
  2510 ;;      Totals:        34       0       0       0       0       0       0       0       0       0       0       0       
      +0       0       0       0       0       0       0       0       0       0       0       0       0       0       0       
      +0       0       0       0       0       0       0       0       0       0       0       0       0       0       0       
      +0       0       0       0       0       0       0       0       0
  2511 ;;Total ram usage:       34 bytes
  2512 ;; Hardware stack levels used: 1
  2513 ;; Hardware stack levels required when called: 4
  2514 ;; This function calls:
  2515 ;;		___lldiv
  2516 ;;		___lmul
  2517 ;; This function is called by:
  2518 ;;		_main
  2519 ;; This function uses a non-reentrant model
  2520 ;;
  2521                           
  2522                           	psect	text6
  2523   004FB4                     __ptext6:
  2524                           	callstack 0
  2525   004FB4                     _linear_map:
  2526                           	callstack 122
  2527   004FB4                     
  2528                           ;main.c: 71: uint16_t linear_map(uint16_t a, uint16_t b, uint16_t x, uint16_t y, uint16_
      +                          t value);main.c: 72: {;main.c: 73:     if (value < a) {
  2529   004FB4  501C               	movf	linear_map@a^(0+1280),w,c
  2530   004FB6  5C24               	subwf	linear_map@value^(0+1280),w,c
  2531   004FB8  501D               	movf	(linear_map@a+1)^(0+1280),w,c
  2532   004FBA  5825               	subwfb	(linear_map@value+1)^(0+1280),w,c
  2533   004FBC  B0D8               	btfsc	status,0,c
  2534   004FBE  EFE3  F027         	goto	u3471
  2535   004FC2  EFE5  F027         	goto	u3470
  2536   004FC6                     u3471:
  2537   004FC6  EFEB  F027         	goto	l3752
  2538   004FCA                     u3470:
  2539   004FCA                     
  2540                           ;main.c: 74:         return x;
  2541   004FCA  C520  F51C         	movff	linear_map@x,?_linear_map
  2542   004FCE  C521  F51D         	movff	linear_map@x+1,?_linear_map+1
  2543   004FD2  EF5A  F028         	goto	l860
  2544   004FD6                     l3752:
  2545   004FD6  5024               	movf	linear_map@value^(0+1280),w,c
  2546   004FD8  5C1E               	subwf	linear_map@b^(0+1280),w,c
  2547   004FDA  5025               	movf	(linear_map@value+1)^(0+1280),w,c
  2548   004FDC  581F               	subwfb	(linear_map@b+1)^(0+1280),w,c
  2549   004FDE  B0D8               	btfsc	status,0,c
  2550   004FE0  EFF4  F027         	goto	u3481
  2551   004FE4  EFF6  F027         	goto	u3480
  2552   004FE8                     u3481:
  2553   004FE8  EFFC  F027         	goto	l3758
  2554   004FEC                     u3480:
  2555   004FEC                     
  2556                           ;main.c: 76:         return y;
  2557   004FEC  C522  F51C         	movff	linear_map@y,?_linear_map
  2558   004FF0  C523  F51D         	movff	linear_map@y+1,?_linear_map+1
  2559   004FF4  EF5A  F028         	goto	l860
  2560   004FF8                     l3758:
  2561                           
  2562                           ;main.c: 78:         uint32_t A = a;
  2563   004FF8  C51C  F536         	movff	linear_map@a,linear_map@A
  2564   004FFC  C51D  F537         	movff	linear_map@a+1,linear_map@A+1
  2565   005000  6A38               	clrf	(linear_map@A+2)^(0+1280),c
  2566   005002  6A39               	clrf	(linear_map@A+3)^(0+1280),c
  2567                           
  2568                           ;main.c: 79:         uint32_t B = b;
  2569   005004  C51E  F526         	movff	linear_map@b,linear_map@B
  2570   005008  C51F  F527         	movff	linear_map@b+1,linear_map@B+1
  2571   00500C  6A28               	clrf	(linear_map@B+2)^(0+1280),c
  2572   00500E  6A29               	clrf	(linear_map@B+3)^(0+1280),c
  2573                           
  2574                           ;main.c: 80:         uint32_t X = x;
  2575   005010  C520  F53A         	movff	linear_map@x,linear_map@X
  2576   005014  C521  F53B         	movff	linear_map@x+1,linear_map@X+1
  2577   005018  6A3C               	clrf	(linear_map@X+2)^(0+1280),c
  2578   00501A  6A3D               	clrf	(linear_map@X+3)^(0+1280),c
  2579                           
  2580                           ;main.c: 81:         uint32_t Y = y;
  2581   00501C  C522  F52A         	movff	linear_map@y,linear_map@Y
  2582   005020  C523  F52B         	movff	linear_map@y+1,linear_map@Y+1
  2583   005024  6A2C               	clrf	(linear_map@Y+2)^(0+1280),c
  2584   005026  6A2D               	clrf	(linear_map@Y+3)^(0+1280),c
  2585                           
  2586                           ;main.c: 82:         uint32_t V = value;
  2587   005028  C524  F52E         	movff	linear_map@value,linear_map@V
  2588   00502C  C525  F52F         	movff	linear_map@value+1,linear_map@V+1
  2589   005030  6A30               	clrf	(linear_map@V+2)^(0+1280),c
  2590   005032  6A31               	clrf	(linear_map@V+3)^(0+1280),c
  2591   005034                     
  2592                           ;main.c: 84:         uint32_t ret = X + (((V - A) * (Y - X))) / (B - A);
  2593   005034  5036               	movf	linear_map@A^(0+1280),w,c
  2594   005036  5C2E               	subwf	linear_map@V^(0+1280),w,c
  2595   005038  6E03               	movwf	___lmul@multiplier^(0+1280),c
  2596   00503A  5037               	movf	(linear_map@A+1)^(0+1280),w,c
  2597   00503C  582F               	subwfb	(linear_map@V+1)^(0+1280),w,c
  2598   00503E  6E04               	movwf	(___lmul@multiplier+1)^(0+1280),c
  2599   005040  5038               	movf	(linear_map@A+2)^(0+1280),w,c
  2600   005042  5830               	subwfb	(linear_map@V+2)^(0+1280),w,c
  2601   005044  6E05               	movwf	(___lmul@multiplier+2)^(0+1280),c
  2602   005046  5039               	movf	(linear_map@A+3)^(0+1280),w,c
  2603   005048  5831               	subwfb	(linear_map@V+3)^(0+1280),w,c
  2604   00504A  6E06               	movwf	(___lmul@multiplier+3)^(0+1280),c
  2605   00504C  503A               	movf	linear_map@X^(0+1280),w,c
  2606   00504E  5C2A               	subwf	linear_map@Y^(0+1280),w,c
  2607   005050  6E07               	movwf	___lmul@multiplicand^(0+1280),c
  2608   005052  503B               	movf	(linear_map@X+1)^(0+1280),w,c
  2609   005054  582B               	subwfb	(linear_map@Y+1)^(0+1280),w,c
  2610   005056  6E08               	movwf	(___lmul@multiplicand+1)^(0+1280),c
  2611   005058  503C               	movf	(linear_map@X+2)^(0+1280),w,c
  2612   00505A  582C               	subwfb	(linear_map@Y+2)^(0+1280),w,c
  2613   00505C  6E09               	movwf	(___lmul@multiplicand+2)^(0+1280),c
  2614   00505E  503D               	movf	(linear_map@X+3)^(0+1280),w,c
  2615   005060  582D               	subwfb	(linear_map@Y+3)^(0+1280),w,c
  2616   005062  6E0A               	movwf	(___lmul@multiplicand+3)^(0+1280),c
  2617   005064  ECE0  F02A         	call	___lmul
  2618   005068  C503  F50F         	movff	?___lmul,___lldiv@dividend
  2619   00506C  C504  F510         	movff	?___lmul+1,___lldiv@dividend+1
  2620   005070  C505  F511         	movff	?___lmul+2,___lldiv@dividend+2
  2621   005074  C506  F512         	movff	?___lmul+3,___lldiv@dividend+3
  2622   005078  5036               	movf	linear_map@A^(0+1280),w,c
  2623   00507A  5C26               	subwf	linear_map@B^(0+1280),w,c
  2624   00507C  6E13               	movwf	___lldiv@divisor^(0+1280),c
  2625   00507E  5037               	movf	(linear_map@A+1)^(0+1280),w,c
  2626   005080  5827               	subwfb	(linear_map@B+1)^(0+1280),w,c
  2627   005082  6E14               	movwf	(___lldiv@divisor+1)^(0+1280),c
  2628   005084  5038               	movf	(linear_map@A+2)^(0+1280),w,c
  2629   005086  5828               	subwfb	(linear_map@B+2)^(0+1280),w,c
  2630   005088  6E15               	movwf	(___lldiv@divisor+2)^(0+1280),c
  2631   00508A  5039               	movf	(linear_map@A+3)^(0+1280),w,c
  2632   00508C  5829               	subwfb	(linear_map@B+3)^(0+1280),w,c
  2633   00508E  6E16               	movwf	(___lldiv@divisor+3)^(0+1280),c
  2634   005090  EC9C  F029         	call	___lldiv	;wreg free
  2635   005094  503A               	movf	linear_map@X^(0+1280),w,c
  2636   005096  240F               	addwf	?___lldiv^(0+1280),w,c
  2637   005098  6E32               	movwf	linear_map@ret^(0+1280),c
  2638   00509A  503B               	movf	(linear_map@X+1)^(0+1280),w,c
  2639   00509C  2010               	addwfc	(?___lldiv+1)^(0+1280),w,c
  2640   00509E  6E33               	movwf	(linear_map@ret+1)^(0+1280),c
  2641   0050A0  503C               	movf	(linear_map@X+2)^(0+1280),w,c
  2642   0050A2  2011               	addwfc	(?___lldiv+2)^(0+1280),w,c
  2643   0050A4  6E34               	movwf	(linear_map@ret+2)^(0+1280),c
  2644   0050A6  503D               	movf	(linear_map@X+3)^(0+1280),w,c
  2645   0050A8  2012               	addwfc	(?___lldiv+3)^(0+1280),w,c
  2646   0050AA  6E35               	movwf	(linear_map@ret+3)^(0+1280),c
  2647   0050AC                     
  2648                           ;main.c: 85:         return ((uint16_t)ret);
  2649   0050AC  C532  F51C         	movff	linear_map@ret,?_linear_map
  2650   0050B0  C533  F51D         	movff	linear_map@ret+1,?_linear_map+1
  2651   0050B4                     l860:
  2652   0050B4  0012               	return		;funcret
  2653   0050B6                     __end_of_linear_map:
  2654                           	callstack 0
  2655                           
  2656 ;; *************** function ___lmul *****************
  2657 ;; Defined at:
  2658 ;;		line 15 in file "C:\Program Files\Microchip\xc8\v2.41\pic\sources\c99\common\Umul32.c"
  2659 ;; Parameters:    Size  Location     Type
  2660 ;;  multiplier      4    2[COMRAM] unsigned long 
  2661 ;;  multiplicand    4    6[COMRAM] unsigned long 
  2662 ;; Auto vars:     Size  Location     Type
  2663 ;;  product         4   10[COMRAM] unsigned long 
  2664 ;; Return value:  Size  Location     Type
  2665 ;;                  4    2[COMRAM] unsigned long 
  2666 ;; Registers used:
  2667 ;;		wreg, status,2, status,0
  2668 ;; Tracked objects:
  2669 ;;		On entry : 0/0
  2670 ;;		On exit  : 0/0
  2671 ;;		Unchanged: 0/0
  2672 ;; Data sizes:     COMRAM   BANK5   BANK6   BANK7   BANK8   BANK9  BANK10  BANK11  BANK12  BANK13  BANK14  BANK15  BANK1
      +6  BANK17  BANK18  BANK19  BANK20  BANK21  BANK22  BANK23  BANK24  BANK25  BANK26  BANK27  BANK28  BANK29  BANK30  BANK3
      +1  BANK32  BANK33  BANK34  BANK35  BANK36  BANK37  BANK38  BANK39  BANK40  BANK41  BANK42  BANK43  BANK44  BANK45  BANK4
      +6  BANK47  BANK48  BANK49  BANK50  BANK51  BANK52  BANK53  BANK54
  2673 ;;      Params:         8       0       0       0       0       0       0       0       0       0       0       0       
      +0       0       0       0       0       0       0       0       0       0       0       0       0       0       0       
      +0       0       0       0       0       0       0       0       0       0       0       0       0       0       0       
      +0       0       0       0       0       0       0       0       0
  2674 ;;      Locals:         4       0       0       0       0       0       0       0       0       0       0       0       
      +0       0       0       0       0       0       0       0       0       0       0       0       0       0       0       
      +0       0       0       0       0       0       0       0       0       0       0       0       0       0       0       
      +0       0       0       0       0       0       0       0       0
  2675 ;;      Temps:          0       0       0       0       0       0       0       0       0       0       0       0       
      +0       0       0       0       0       0       0       0       0       0       0       0       0       0       0       
      +0       0       0       0       0       0       0       0       0       0       0       0       0       0       0       
      +0       0       0       0       0       0       0       0       0
  2676 ;;      Totals:        12       0       0       0       0       0       0       0       0       0       0       0       
      +0       0       0       0       0       0       0       0       0       0       0       0       0       0       0       
      +0       0       0       0       0       0       0       0       0       0       0       0       0       0       0       
      +0       0       0       0       0       0       0       0       0
  2677 ;;Total ram usage:       12 bytes
  2678 ;; Hardware stack levels used: 1
  2679 ;; Hardware stack levels required when called: 3
  2680 ;; This function calls:
  2681 ;;		Nothing
  2682 ;; This function is called by:
  2683 ;;		_linear_map
  2684 ;; This function uses a non-reentrant model
  2685 ;;
  2686                           
  2687                           	psect	text7
  2688   0055C0                     __ptext7:
  2689                           	callstack 0
  2690   0055C0                     ___lmul:
  2691                           	callstack 122
  2692   0055C0  0E00               	movlw	0
  2693   0055C2  6E0B               	movwf	___lmul@product^(0+1280),c
  2694   0055C4  0E00               	movlw	0
  2695   0055C6  6E0C               	movwf	(___lmul@product+1)^(0+1280),c
  2696   0055C8  0E00               	movlw	0
  2697   0055CA  6E0D               	movwf	(___lmul@product+2)^(0+1280),c
  2698   0055CC  0E00               	movlw	0
  2699   0055CE  6E0E               	movwf	(___lmul@product+3)^(0+1280),c
  2700   0055D0                     l3608:
  2701   0055D0  A003               	btfss	___lmul@multiplier^(0+1280),0,c
  2702   0055D2  EFED  F02A         	goto	u3301
  2703   0055D6  EFEF  F02A         	goto	u3300
  2704   0055DA                     u3301:
  2705   0055DA  EFF7  F02A         	goto	l3612
  2706   0055DE                     u3300:
  2707   0055DE  5007               	movf	___lmul@multiplicand^(0+1280),w,c
  2708   0055E0  260B               	addwf	___lmul@product^(0+1280),f,c
  2709   0055E2  5008               	movf	(___lmul@multiplicand+1)^(0+1280),w,c
  2710   0055E4  220C               	addwfc	(___lmul@product+1)^(0+1280),f,c
  2711   0055E6  5009               	movf	(___lmul@multiplicand+2)^(0+1280),w,c
  2712   0055E8  220D               	addwfc	(___lmul@product+2)^(0+1280),f,c
  2713   0055EA  500A               	movf	(___lmul@multiplicand+3)^(0+1280),w,c
  2714   0055EC  220E               	addwfc	(___lmul@product+3)^(0+1280),f,c
  2715   0055EE                     l3612:
  2716   0055EE  90D8               	bcf	status,0,c
  2717   0055F0  3607               	rlcf	___lmul@multiplicand^(0+1280),f,c
  2718   0055F2  3608               	rlcf	(___lmul@multiplicand+1)^(0+1280),f,c
  2719   0055F4  3609               	rlcf	(___lmul@multiplicand+2)^(0+1280),f,c
  2720   0055F6  360A               	rlcf	(___lmul@multiplicand+3)^(0+1280),f,c
  2721   0055F8  90D8               	bcf	status,0,c
  2722   0055FA  3206               	rrcf	(___lmul@multiplier+3)^(0+1280),f,c
  2723   0055FC  3205               	rrcf	(___lmul@multiplier+2)^(0+1280),f,c
  2724   0055FE  3204               	rrcf	(___lmul@multiplier+1)^(0+1280),f,c
  2725   005600  3203               	rrcf	___lmul@multiplier^(0+1280),f,c
  2726   005602  5003               	movf	___lmul@multiplier^(0+1280),w,c
  2727   005604  1004               	iorwf	(___lmul@multiplier+1)^(0+1280),w,c
  2728   005606  1005               	iorwf	(___lmul@multiplier+2)^(0+1280),w,c
  2729   005608  1006               	iorwf	(___lmul@multiplier+3)^(0+1280),w,c
  2730   00560A  A4D8               	btfss	status,2,c
  2731   00560C  EF0A  F02B         	goto	u3311
  2732   005610  EF0C  F02B         	goto	u3310
  2733   005614                     u3311:
  2734   005614  EFE8  F02A         	goto	l3608
  2735   005618                     u3310:
  2736   005618  C50B  F503         	movff	___lmul@product,?___lmul
  2737   00561C  C50C  F504         	movff	___lmul@product+1,?___lmul+1
  2738   005620  C50D  F505         	movff	___lmul@product+2,?___lmul+2
  2739   005624  C50E  F506         	movff	___lmul@product+3,?___lmul+3
  2740   005628  0012               	return		;funcret
  2741   00562A                     __end_of___lmul:
  2742                           	callstack 0
  2743                           
  2744 ;; *************** function ___lldiv *****************
  2745 ;; Defined at:
  2746 ;;		line 7 in file "C:\Program Files\Microchip\xc8\v2.41\pic\sources\c99\common\__lldiv.c"
  2747 ;; Parameters:    Size  Location     Type
  2748 ;;  dividend        4   14[COMRAM] unsigned long 
  2749 ;;  divisor         4   18[COMRAM] unsigned long 
  2750 ;; Auto vars:     Size  Location     Type
  2751 ;;  quotient        4   22[COMRAM] unsigned long 
  2752 ;;  counter         1   26[COMRAM] unsigned char 
  2753 ;; Return value:  Size  Location     Type
  2754 ;;                  4   14[COMRAM] unsigned long 
  2755 ;; Registers used:
  2756 ;;		wreg, status,2, status,0
  2757 ;; Tracked objects:
  2758 ;;		On entry : 0/0
  2759 ;;		On exit  : 0/0
  2760 ;;		Unchanged: 0/0
  2761 ;; Data sizes:     COMRAM   BANK5   BANK6   BANK7   BANK8   BANK9  BANK10  BANK11  BANK12  BANK13  BANK14  BANK15  BANK1
      +6  BANK17  BANK18  BANK19  BANK20  BANK21  BANK22  BANK23  BANK24  BANK25  BANK26  BANK27  BANK28  BANK29  BANK30  BANK3
      +1  BANK32  BANK33  BANK34  BANK35  BANK36  BANK37  BANK38  BANK39  BANK40  BANK41  BANK42  BANK43  BANK44  BANK45  BANK4
      +6  BANK47  BANK48  BANK49  BANK50  BANK51  BANK52  BANK53  BANK54
  2762 ;;      Params:         8       0       0       0       0       0       0       0       0       0       0       0       
      +0       0       0       0       0       0       0       0       0       0       0       0       0       0       0       
      +0       0       0       0       0       0       0       0       0       0       0       0       0       0       0       
      +0       0       0       0       0       0       0       0       0
  2763 ;;      Locals:         5       0       0       0       0       0       0       0       0       0       0       0       
      +0       0       0       0       0       0       0       0       0       0       0       0       0       0       0       
      +0       0       0       0       0       0       0       0       0       0       0       0       0       0       0       
      +0       0       0       0       0       0       0       0       0
  2764 ;;      Temps:          0       0       0       0       0       0       0       0       0       0       0       0       
      +0       0       0       0       0       0       0       0       0       0       0       0       0       0       0       
      +0       0       0       0       0       0       0       0       0       0       0       0       0       0       0       
      +0       0       0       0       0       0       0       0       0
  2765 ;;      Totals:        13       0       0       0       0       0       0       0       0       0       0       0       
      +0       0       0       0       0       0       0       0       0       0       0       0       0       0       0       
      +0       0       0       0       0       0       0       0       0       0       0       0       0       0       0       
      +0       0       0       0       0       0       0       0       0
  2766 ;;Total ram usage:       13 bytes
  2767 ;; Hardware stack levels used: 1
  2768 ;; Hardware stack levels required when called: 3
  2769 ;; This function calls:
  2770 ;;		Nothing
  2771 ;; This function is called by:
  2772 ;;		_linear_map
  2773 ;; This function uses a non-reentrant model
  2774 ;;
  2775                           
  2776                           	psect	text8
  2777   005338                     __ptext8:
  2778                           	callstack 0
  2779   005338                     ___lldiv:
  2780                           	callstack 122
  2781   005338  0E00               	movlw	0
  2782   00533A  6E17               	movwf	___lldiv@quotient^(0+1280),c
  2783   00533C  0E00               	movlw	0
  2784   00533E  6E18               	movwf	(___lldiv@quotient+1)^(0+1280),c
  2785   005340  0E00               	movlw	0
  2786   005342  6E19               	movwf	(___lldiv@quotient+2)^(0+1280),c
  2787   005344  0E00               	movlw	0
  2788   005346  6E1A               	movwf	(___lldiv@quotient+3)^(0+1280),c
  2789   005348  5013               	movf	___lldiv@divisor^(0+1280),w,c
  2790   00534A  1014               	iorwf	(___lldiv@divisor+1)^(0+1280),w,c
  2791   00534C  1015               	iorwf	(___lldiv@divisor+2)^(0+1280),w,c
  2792   00534E  1016               	iorwf	(___lldiv@divisor+3)^(0+1280),w,c
  2793   005350  B4D8               	btfsc	status,2,c
  2794   005352  EFAD  F029         	goto	u3321
  2795   005356  EFAF  F029         	goto	u3320
  2796   00535A                     u3321:
  2797   00535A  EFE5  F029         	goto	l968
  2798   00535E                     u3320:
  2799   00535E  0E01               	movlw	1
  2800   005360  6E1B               	movwf	___lldiv@counter^(0+1280),c
  2801   005362  EFB9  F029         	goto	l3624
  2802   005366                     l3622:
  2803   005366  90D8               	bcf	status,0,c
  2804   005368  3613               	rlcf	___lldiv@divisor^(0+1280),f,c
  2805   00536A  3614               	rlcf	(___lldiv@divisor+1)^(0+1280),f,c
  2806   00536C  3615               	rlcf	(___lldiv@divisor+2)^(0+1280),f,c
  2807   00536E  3616               	rlcf	(___lldiv@divisor+3)^(0+1280),f,c
  2808   005370  2A1B               	incf	___lldiv@counter^(0+1280),f,c
  2809   005372                     l3624:
  2810   005372  AE16               	btfss	(___lldiv@divisor+3)^(0+1280),7,c
  2811   005374  EFBE  F029         	goto	u3331
  2812   005378  EFC0  F029         	goto	u3330
  2813   00537C                     u3331:
  2814   00537C  EFB3  F029         	goto	l3622
  2815   005380                     u3330:
  2816   005380                     l3626:
  2817   005380  90D8               	bcf	status,0,c
  2818   005382  3617               	rlcf	___lldiv@quotient^(0+1280),f,c
  2819   005384  3618               	rlcf	(___lldiv@quotient+1)^(0+1280),f,c
  2820   005386  3619               	rlcf	(___lldiv@quotient+2)^(0+1280),f,c
  2821   005388  361A               	rlcf	(___lldiv@quotient+3)^(0+1280),f,c
  2822   00538A  5013               	movf	___lldiv@divisor^(0+1280),w,c
  2823   00538C  5C0F               	subwf	___lldiv@dividend^(0+1280),w,c
  2824   00538E  5014               	movf	(___lldiv@divisor+1)^(0+1280),w,c
  2825   005390  5810               	subwfb	(___lldiv@dividend+1)^(0+1280),w,c
  2826   005392  5015               	movf	(___lldiv@divisor+2)^(0+1280),w,c
  2827   005394  5811               	subwfb	(___lldiv@dividend+2)^(0+1280),w,c
  2828   005396  5016               	movf	(___lldiv@divisor+3)^(0+1280),w,c
  2829   005398  5812               	subwfb	(___lldiv@dividend+3)^(0+1280),w,c
  2830   00539A  A0D8               	btfss	status,0,c
  2831   00539C  EFD2  F029         	goto	u3341
  2832   0053A0  EFD4  F029         	goto	u3340
  2833   0053A4                     u3341:
  2834   0053A4  EFDD  F029         	goto	l3634
  2835   0053A8                     u3340:
  2836   0053A8  5013               	movf	___lldiv@divisor^(0+1280),w,c
  2837   0053AA  5E0F               	subwf	___lldiv@dividend^(0+1280),f,c
  2838   0053AC  5014               	movf	(___lldiv@divisor+1)^(0+1280),w,c
  2839   0053AE  5A10               	subwfb	(___lldiv@dividend+1)^(0+1280),f,c
  2840   0053B0  5015               	movf	(___lldiv@divisor+2)^(0+1280),w,c
  2841   0053B2  5A11               	subwfb	(___lldiv@dividend+2)^(0+1280),f,c
  2842   0053B4  5016               	movf	(___lldiv@divisor+3)^(0+1280),w,c
  2843   0053B6  5A12               	subwfb	(___lldiv@dividend+3)^(0+1280),f,c
  2844   0053B8  8017               	bsf	___lldiv@quotient^(0+1280),0,c
  2845   0053BA                     l3634:
  2846   0053BA  90D8               	bcf	status,0,c
  2847   0053BC  3216               	rrcf	(___lldiv@divisor+3)^(0+1280),f,c
  2848   0053BE  3215               	rrcf	(___lldiv@divisor+2)^(0+1280),f,c
  2849   0053C0  3214               	rrcf	(___lldiv@divisor+1)^(0+1280),f,c
  2850   0053C2  3213               	rrcf	___lldiv@divisor^(0+1280),f,c
  2851   0053C4  2E1B               	decfsz	___lldiv@counter^(0+1280),f,c
  2852   0053C6  EFC0  F029         	goto	l3626
  2853   0053CA                     l968:
  2854   0053CA  C517  F50F         	movff	___lldiv@quotient,?___lldiv
  2855   0053CE  C518  F510         	movff	___lldiv@quotient+1,?___lldiv+1
  2856   0053D2  C519  F511         	movff	___lldiv@quotient+2,?___lldiv+2
  2857   0053D6  C51A  F512         	movff	___lldiv@quotient+3,?___lldiv+3
  2858   0053DA  0012               	return		;funcret
  2859   0053DC                     __end_of___lldiv:
  2860                           	callstack 0
  2861                           
  2862 ;; *************** function _calculate_P *****************
  2863 ;; Defined at:
  2864 ;;		line 173 in file "main.c"
  2865 ;; Parameters:    Size  Location     Type
  2866 ;;  p0              2    2[COMRAM] const PTR unsigned char 
  2867 ;;		 -> P0(1), 
  2868 ;;  p1              2    4[COMRAM] const PTR unsigned char 
  2869 ;;		 -> P1(1), 
  2870 ;;  percent         2    6[COMRAM] unsigned short 
  2871 ;; Auto vars:     Size  Location     Type
  2872 ;;		None
  2873 ;; Return value:  Size  Location     Type
  2874 ;;                  1    wreg      void 
  2875 ;; Registers used:
  2876 ;;		wreg, fsr2l, fsr2h, status,2, status,0
  2877 ;; Tracked objects:
  2878 ;;		On entry : 0/0
  2879 ;;		On exit  : 0/0
  2880 ;;		Unchanged: 0/0
  2881 ;; Data sizes:     COMRAM   BANK5   BANK6   BANK7   BANK8   BANK9  BANK10  BANK11  BANK12  BANK13  BANK14  BANK15  BANK1
      +6  BANK17  BANK18  BANK19  BANK20  BANK21  BANK22  BANK23  BANK24  BANK25  BANK26  BANK27  BANK28  BANK29  BANK30  BANK3
      +1  BANK32  BANK33  BANK34  BANK35  BANK36  BANK37  BANK38  BANK39  BANK40  BANK41  BANK42  BANK43  BANK44  BANK45  BANK4
      +6  BANK47  BANK48  BANK49  BANK50  BANK51  BANK52  BANK53  BANK54
  2882 ;;      Params:         6       0       0       0       0       0       0       0       0       0       0       0       
      +0       0       0       0       0       0       0       0       0       0       0       0       0       0       0       
      +0       0       0       0       0       0       0       0       0       0       0       0       0       0       0       
      +0       0       0       0       0       0       0       0       0
  2883 ;;      Locals:         0       0       0       0       0       0       0       0       0       0       0       0       
      +0       0       0       0       0       0       0       0       0       0       0       0       0       0       0       
      +0       0       0       0       0       0       0       0       0       0       0       0       0       0       0       
      +0       0       0       0       0       0       0       0       0
  2884 ;;      Temps:          0       0       0       0       0       0       0       0       0       0       0       0       
      +0       0       0       0       0       0       0       0       0       0       0       0       0       0       0       
      +0       0       0       0       0       0       0       0       0       0       0       0       0       0       0       
      +0       0       0       0       0       0       0       0       0
  2885 ;;      Totals:         6       0       0       0       0       0       0       0       0       0       0       0       
      +0       0       0       0       0       0       0       0       0       0       0       0       0       0       0       
      +0       0       0       0       0       0       0       0       0       0       0       0       0       0       0       
      +0       0       0       0       0       0       0       0       0
  2886 ;;Total ram usage:        6 bytes
  2887 ;; Hardware stack levels used: 1
  2888 ;; Hardware stack levels required when called: 3
  2889 ;; This function calls:
  2890 ;;		Nothing
  2891 ;; This function is called by:
  2892 ;;		_main
  2893 ;; This function uses a non-reentrant model
  2894 ;;
  2895                           
  2896                           	psect	text9
  2897   00408E                     __ptext9:
  2898                           	callstack 0
  2899   00408E                     _calculate_P:
  2900                           	callstack 123
  2901   00408E                     
  2902                           ;main.c: 173: void calculate_P(char * const p0, char * const p1, uint16_t percent);main.
      +                          c: 174: {;main.c: 178:     if (percent < 625) {
  2903   00408E  0E71               	movlw	113
  2904   004090  5C07               	subwf	calculate_P@percent^(0+1280),w,c
  2905   004092  0E02               	movlw	2
  2906   004094  5808               	subwfb	(calculate_P@percent+1)^(0+1280),w,c
  2907   004096  B0D8               	btfsc	status,0,c
  2908   004098  EF50  F020         	goto	u3691
  2909   00409C  EF52  F020         	goto	u3690
  2910   0040A0                     u3691:
  2911   0040A0  EF60  F020         	goto	l3874
  2912   0040A4                     u3690:
  2913   0040A4                     
  2914                           ;main.c: 180:         *p0 = 0xE9;
  2915   0040A4  C503  F4D9         	movff	calculate_P@p0,fsr2l
  2916   0040A8  C504  F4DA         	movff	calculate_P@p0+1,fsr2h
  2917   0040AC  0EE9               	movlw	233
  2918   0040AE  6EDF               	movwf	indf2,c
  2919                           
  2920                           ;main.c: 181:         *p1 = 0xFF;
  2921   0040B0  C505  F4D9         	movff	calculate_P@p1,fsr2l
  2922   0040B4  C506  F4DA         	movff	calculate_P@p1+1,fsr2h
  2923   0040B8  0EFF               	movlw	255
  2924   0040BA  6EDF               	movwf	indf2,c
  2925                           
  2926                           ;main.c: 182:     } else if (
  2927   0040BC  EFBD  F021         	goto	l923
  2928   0040C0                     l3874:
  2929   0040C0  0E71               	movlw	113
  2930   0040C2  5C07               	subwf	calculate_P@percent^(0+1280),w,c
  2931   0040C4  0E02               	movlw	2
  2932   0040C6  5808               	subwfb	(calculate_P@percent+1)^(0+1280),w,c
  2933   0040C8  A0D8               	btfss	status,0,c
  2934   0040CA  EF69  F020         	goto	u3701
  2935   0040CE  EF6B  F020         	goto	u3700
  2936   0040D2                     u3701:
  2937   0040D2  EF84  F020         	goto	l3880
  2938   0040D6                     u3700:
  2939   0040D6  0EE2               	movlw	226
  2940   0040D8  5C07               	subwf	calculate_P@percent^(0+1280),w,c
  2941   0040DA  0E04               	movlw	4
  2942   0040DC  5808               	subwfb	(calculate_P@percent+1)^(0+1280),w,c
  2943   0040DE  B0D8               	btfsc	status,0,c
  2944   0040E0  EF74  F020         	goto	u3711
  2945   0040E4  EF76  F020         	goto	u3710
  2946   0040E8                     u3711:
  2947   0040E8  EF84  F020         	goto	l3880
  2948   0040EC                     u3710:
  2949   0040EC                     
  2950                           ;main.c: 185:     ) {;main.c: 187:         *p0 = 0xF2;
  2951   0040EC  C503  F4D9         	movff	calculate_P@p0,fsr2l
  2952   0040F0  C504  F4DA         	movff	calculate_P@p0+1,fsr2h
  2953   0040F4  0EF2               	movlw	242
  2954   0040F6  6EDF               	movwf	indf2,c
  2955                           
  2956                           ;main.c: 188:         *p1 = 0xFE;
  2957   0040F8  C505  F4D9         	movff	calculate_P@p1,fsr2l
  2958   0040FC  C506  F4DA         	movff	calculate_P@p1+1,fsr2h
  2959   004100  0EFE               	movlw	254
  2960   004102  6EDF               	movwf	indf2,c
  2961                           
  2962                           ;main.c: 189:     } else if (
  2963   004104  EFBD  F021         	goto	l923
  2964   004108                     l3880:
  2965   004108  0EE2               	movlw	226
  2966   00410A  5C07               	subwf	calculate_P@percent^(0+1280),w,c
  2967   00410C  0E04               	movlw	4
  2968   00410E  5808               	subwfb	(calculate_P@percent+1)^(0+1280),w,c
  2969   004110  A0D8               	btfss	status,0,c
  2970   004112  EF8D  F020         	goto	u3721
  2971   004116  EF8F  F020         	goto	u3720
  2972   00411A                     u3721:
  2973   00411A  EFA8  F020         	goto	l3886
  2974   00411E                     u3720:
  2975   00411E  0E53               	movlw	83
  2976   004120  5C07               	subwf	calculate_P@percent^(0+1280),w,c
  2977   004122  0E07               	movlw	7
  2978   004124  5808               	subwfb	(calculate_P@percent+1)^(0+1280),w,c
  2979   004126  B0D8               	btfsc	status,0,c
  2980   004128  EF98  F020         	goto	u3731
  2981   00412C  EF9A  F020         	goto	u3730
  2982   004130                     u3731:
  2983   004130  EFA8  F020         	goto	l3886
  2984   004134                     u3730:
  2985   004134                     
  2986                           ;main.c: 192:     ) {;main.c: 194:         *p0 = 0xF5;
  2987   004134  C503  F4D9         	movff	calculate_P@p0,fsr2l
  2988   004138  C504  F4DA         	movff	calculate_P@p0+1,fsr2h
  2989   00413C  0EF5               	movlw	245
  2990   00413E  6EDF               	movwf	indf2,c
  2991                           
  2992                           ;main.c: 195:        * p1 = 0xFE;
  2993   004140  C505  F4D9         	movff	calculate_P@p1,fsr2l
  2994   004144  C506  F4DA         	movff	calculate_P@p1+1,fsr2h
  2995   004148  0EFE               	movlw	254
  2996   00414A  6EDF               	movwf	indf2,c
  2997                           
  2998                           ;main.c: 196:     } else if (
  2999   00414C  EFBD  F021         	goto	l923
  3000   004150                     l3886:
  3001   004150  0E53               	movlw	83
  3002   004152  5C07               	subwf	calculate_P@percent^(0+1280),w,c
  3003   004154  0E07               	movlw	7
  3004   004156  5808               	subwfb	(calculate_P@percent+1)^(0+1280),w,c
  3005   004158  A0D8               	btfss	status,0,c
  3006   00415A  EFB1  F020         	goto	u3741
  3007   00415E  EFB3  F020         	goto	u3740
  3008   004162                     u3741:
  3009   004162  EFCC  F020         	goto	l3892
  3010   004166                     u3740:
  3011   004166  0EC4               	movlw	196
  3012   004168  5C07               	subwf	calculate_P@percent^(0+1280),w,c
  3013   00416A  0E09               	movlw	9
  3014   00416C  5808               	subwfb	(calculate_P@percent+1)^(0+1280),w,c
  3015   00416E  B0D8               	btfsc	status,0,c
  3016   004170  EFBC  F020         	goto	u3751
  3017   004174  EFBE  F020         	goto	u3750
  3018   004178                     u3751:
  3019   004178  EFCC  F020         	goto	l3892
  3020   00417C                     u3750:
  3021   00417C                     
  3022                           ;main.c: 199:     ) {;main.c: 201:         *p0 = 0xF6;
  3023   00417C  C503  F4D9         	movff	calculate_P@p0,fsr2l
  3024   004180  C504  F4DA         	movff	calculate_P@p0+1,fsr2h
  3025   004184  0EF6               	movlw	246
  3026   004186  6EDF               	movwf	indf2,c
  3027                           
  3028                           ;main.c: 202:         *p1 = 0xFD;
  3029   004188  C505  F4D9         	movff	calculate_P@p1,fsr2l
  3030   00418C  C506  F4DA         	movff	calculate_P@p1+1,fsr2h
  3031   004190  0EFD               	movlw	253
  3032   004192  6EDF               	movwf	indf2,c
  3033                           
  3034                           ;main.c: 203:     } else if (
  3035   004194  EFBD  F021         	goto	l923
  3036   004198                     l3892:
  3037   004198  0EC4               	movlw	196
  3038   00419A  5C07               	subwf	calculate_P@percent^(0+1280),w,c
  3039   00419C  0E09               	movlw	9
  3040   00419E  5808               	subwfb	(calculate_P@percent+1)^(0+1280),w,c
  3041   0041A0  A0D8               	btfss	status,0,c
  3042   0041A2  EFD5  F020         	goto	u3761
  3043   0041A6  EFD7  F020         	goto	u3760
  3044   0041AA                     u3761:
  3045   0041AA  EFF0  F020         	goto	l3898
  3046   0041AE                     u3760:
  3047   0041AE  0EA6               	movlw	166
  3048   0041B0  5C07               	subwf	calculate_P@percent^(0+1280),w,c
  3049   0041B2  0E0E               	movlw	14
  3050   0041B4  5808               	subwfb	(calculate_P@percent+1)^(0+1280),w,c
  3051   0041B6  B0D8               	btfsc	status,0,c
  3052   0041B8  EFE0  F020         	goto	u3771
  3053   0041BC  EFE2  F020         	goto	u3770
  3054   0041C0                     u3771:
  3055   0041C0  EFF0  F020         	goto	l3898
  3056   0041C4                     u3770:
  3057   0041C4                     
  3058                           ;main.c: 206:     ) {;main.c: 208:         *p0 = 0xF7;
  3059   0041C4  C503  F4D9         	movff	calculate_P@p0,fsr2l
  3060   0041C8  C504  F4DA         	movff	calculate_P@p0+1,fsr2h
  3061   0041CC  0EF7               	movlw	247
  3062   0041CE  6EDF               	movwf	indf2,c
  3063                           
  3064                           ;main.c: 209:         *p1 = 0xFC;
  3065   0041D0  C505  F4D9         	movff	calculate_P@p1,fsr2l
  3066   0041D4  C506  F4DA         	movff	calculate_P@p1+1,fsr2h
  3067   0041D8  0EFC               	movlw	252
  3068   0041DA  6EDF               	movwf	indf2,c
  3069                           
  3070                           ;main.c: 210:     } else if (
  3071   0041DC  EFBD  F021         	goto	l923
  3072   0041E0                     l3898:
  3073   0041E0  0EA6               	movlw	166
  3074   0041E2  5C07               	subwf	calculate_P@percent^(0+1280),w,c
  3075   0041E4  0E0E               	movlw	14
  3076   0041E6  5808               	subwfb	(calculate_P@percent+1)^(0+1280),w,c
  3077   0041E8  A0D8               	btfss	status,0,c
  3078   0041EA  EFF9  F020         	goto	u3781
  3079   0041EE  EFFB  F020         	goto	u3780
  3080   0041F2                     u3781:
  3081   0041F2  EF14  F021         	goto	l3904
  3082   0041F6                     u3780:
  3083   0041F6  0E88               	movlw	136
  3084   0041F8  5C07               	subwf	calculate_P@percent^(0+1280),w,c
  3085   0041FA  0E13               	movlw	19
  3086   0041FC  5808               	subwfb	(calculate_P@percent+1)^(0+1280),w,c
  3087   0041FE  B0D8               	btfsc	status,0,c
  3088   004200  EF04  F021         	goto	u3791
  3089   004204  EF06  F021         	goto	u3790
  3090   004208                     u3791:
  3091   004208  EF14  F021         	goto	l3904
  3092   00420C                     u3790:
  3093   00420C                     
  3094                           ;main.c: 213:     ) {;main.c: 215:         *p0 = 0xFA;
  3095   00420C  C503  F4D9         	movff	calculate_P@p0,fsr2l
  3096   004210  C504  F4DA         	movff	calculate_P@p0+1,fsr2h
  3097   004214  0EFA               	movlw	250
  3098   004216  6EDF               	movwf	indf2,c
  3099                           
  3100                           ;main.c: 216:         *p1 = 0xFC;
  3101   004218  C505  F4D9         	movff	calculate_P@p1,fsr2l
  3102   00421C  C506  F4DA         	movff	calculate_P@p1+1,fsr2h
  3103   004220  0EFC               	movlw	252
  3104   004222  6EDF               	movwf	indf2,c
  3105                           
  3106                           ;main.c: 217:     } else if (
  3107   004224  EFBD  F021         	goto	l923
  3108   004228                     l3904:
  3109   004228  0E88               	movlw	136
  3110   00422A  5C07               	subwf	calculate_P@percent^(0+1280),w,c
  3111   00422C  0E13               	movlw	19
  3112   00422E  5808               	subwfb	(calculate_P@percent+1)^(0+1280),w,c
  3113   004230  A0D8               	btfss	status,0,c
  3114   004232  EF1D  F021         	goto	u3801
  3115   004236  EF1F  F021         	goto	u3800
  3116   00423A                     u3801:
  3117   00423A  EF38  F021         	goto	l3910
  3118   00423E                     u3800:
  3119   00423E  0E6A               	movlw	106
  3120   004240  5C07               	subwf	calculate_P@percent^(0+1280),w,c
  3121   004242  0E18               	movlw	24
  3122   004244  5808               	subwfb	(calculate_P@percent+1)^(0+1280),w,c
  3123   004246  B0D8               	btfsc	status,0,c
  3124   004248  EF28  F021         	goto	u3811
  3125   00424C  EF2A  F021         	goto	u3810
  3126   004250                     u3811:
  3127   004250  EF38  F021         	goto	l3910
  3128   004254                     u3810:
  3129   004254                     
  3130                           ;main.c: 220:     ) {;main.c: 222:         *p0 = 0xFB;
  3131   004254  C503  F4D9         	movff	calculate_P@p0,fsr2l
  3132   004258  C504  F4DA         	movff	calculate_P@p0+1,fsr2h
  3133   00425C  0EFB               	movlw	251
  3134   00425E  6EDF               	movwf	indf2,c
  3135                           
  3136                           ;main.c: 223:         *p1 = 0xFB;
  3137   004260  C505  F4D9         	movff	calculate_P@p1,fsr2l
  3138   004264  C506  F4DA         	movff	calculate_P@p1+1,fsr2h
  3139   004268  0EFB               	movlw	251
  3140   00426A  6EDF               	movwf	indf2,c
  3141                           
  3142                           ;main.c: 224:     } else if (
  3143   00426C  EFBD  F021         	goto	l923
  3144   004270                     l3910:
  3145   004270  0E6A               	movlw	106
  3146   004272  5C07               	subwf	calculate_P@percent^(0+1280),w,c
  3147   004274  0E18               	movlw	24
  3148   004276  5808               	subwfb	(calculate_P@percent+1)^(0+1280),w,c
  3149   004278  A0D8               	btfss	status,0,c
  3150   00427A  EF41  F021         	goto	u3821
  3151   00427E  EF43  F021         	goto	u3820
  3152   004282                     u3821:
  3153   004282  EF5C  F021         	goto	l3916
  3154   004286                     u3820:
  3155   004286  0E4C               	movlw	76
  3156   004288  5C07               	subwf	calculate_P@percent^(0+1280),w,c
  3157   00428A  0E1D               	movlw	29
  3158   00428C  5808               	subwfb	(calculate_P@percent+1)^(0+1280),w,c
  3159   00428E  B0D8               	btfsc	status,0,c
  3160   004290  EF4C  F021         	goto	u3831
  3161   004294  EF4E  F021         	goto	u3830
  3162   004298                     u3831:
  3163   004298  EF5C  F021         	goto	l3916
  3164   00429C                     u3830:
  3165   00429C                     
  3166                           ;main.c: 227:     ) {;main.c: 229:         *p0 = 0xFC;
  3167   00429C  C503  F4D9         	movff	calculate_P@p0,fsr2l
  3168   0042A0  C504  F4DA         	movff	calculate_P@p0+1,fsr2h
  3169   0042A4  0EFC               	movlw	252
  3170   0042A6  6EDF               	movwf	indf2,c
  3171                           
  3172                           ;main.c: 230:         *p1 = 0xF8;
  3173   0042A8  C505  F4D9         	movff	calculate_P@p1,fsr2l
  3174   0042AC  C506  F4DA         	movff	calculate_P@p1+1,fsr2h
  3175   0042B0  0EF8               	movlw	248
  3176   0042B2  6EDF               	movwf	indf2,c
  3177                           
  3178                           ;main.c: 231:     } else if (
  3179   0042B4  EFBD  F021         	goto	l923
  3180   0042B8                     l3916:
  3181   0042B8  0E4C               	movlw	76
  3182   0042BA  5C07               	subwf	calculate_P@percent^(0+1280),w,c
  3183   0042BC  0E1D               	movlw	29
  3184   0042BE  5808               	subwfb	(calculate_P@percent+1)^(0+1280),w,c
  3185   0042C0  A0D8               	btfss	status,0,c
  3186   0042C2  EF65  F021         	goto	u3841
  3187   0042C6  EF67  F021         	goto	u3840
  3188   0042CA                     u3841:
  3189   0042CA  EF80  F021         	goto	l3922
  3190   0042CE                     u3840:
  3191   0042CE  0E2E               	movlw	46
  3192   0042D0  5C07               	subwf	calculate_P@percent^(0+1280),w,c
  3193   0042D2  0E22               	movlw	34
  3194   0042D4  5808               	subwfb	(calculate_P@percent+1)^(0+1280),w,c
  3195   0042D6  B0D8               	btfsc	status,0,c
  3196   0042D8  EF70  F021         	goto	u3851
  3197   0042DC  EF72  F021         	goto	u3850
  3198   0042E0                     u3851:
  3199   0042E0  EF80  F021         	goto	l3922
  3200   0042E4                     u3850:
  3201   0042E4                     
  3202                           ;main.c: 234:     ) {;main.c: 236:         *p0 = 0xFE;
  3203   0042E4  C503  F4D9         	movff	calculate_P@p0,fsr2l
  3204   0042E8  C504  F4DA         	movff	calculate_P@p0+1,fsr2h
  3205   0042EC  0EFE               	movlw	254
  3206   0042EE  6EDF               	movwf	indf2,c
  3207                           
  3208                           ;main.c: 237:         *p1 = 0xF7;
  3209   0042F0  C505  F4D9         	movff	calculate_P@p1,fsr2l
  3210   0042F4  C506  F4DA         	movff	calculate_P@p1+1,fsr2h
  3211   0042F8  0EF7               	movlw	247
  3212   0042FA  6EDF               	movwf	indf2,c
  3213                           
  3214                           ;main.c: 238:     } else if (
  3215   0042FC  EFBD  F021         	goto	l923
  3216   004300                     l3922:
  3217   004300  0E2E               	movlw	46
  3218   004302  5C07               	subwf	calculate_P@percent^(0+1280),w,c
  3219   004304  0E22               	movlw	34
  3220   004306  5808               	subwfb	(calculate_P@percent+1)^(0+1280),w,c
  3221   004308  A0D8               	btfss	status,0,c
  3222   00430A  EF89  F021         	goto	u3861
  3223   00430E  EF8B  F021         	goto	u3860
  3224   004312                     u3861:
  3225   004312  EFA4  F021         	goto	l3928
  3226   004316                     u3860:
  3227   004316  0E1C               	movlw	28
  3228   004318  5C07               	subwf	calculate_P@percent^(0+1280),w,c
  3229   00431A  0E25               	movlw	37
  3230   00431C  5808               	subwfb	(calculate_P@percent+1)^(0+1280),w,c
  3231   00431E  B0D8               	btfsc	status,0,c
  3232   004320  EF94  F021         	goto	u3871
  3233   004324  EF96  F021         	goto	u3870
  3234   004328                     u3871:
  3235   004328  EFA4  F021         	goto	l3928
  3236   00432C                     u3870:
  3237   00432C                     
  3238                           ;main.c: 241:     ) {;main.c: 243:         *p0 = 0xFF;
  3239   00432C  C503  F4D9         	movff	calculate_P@p0,fsr2l
  3240   004330  C504  F4DA         	movff	calculate_P@p0+1,fsr2h
  3241   004334  0EFF               	movlw	255
  3242   004336  6EDF               	movwf	indf2,c
  3243                           
  3244                           ;main.c: 244:         *p1 = 0xF5;
  3245   004338  C505  F4D9         	movff	calculate_P@p1,fsr2l
  3246   00433C  C506  F4DA         	movff	calculate_P@p1+1,fsr2h
  3247   004340  0EF5               	movlw	245
  3248   004342  6EDF               	movwf	indf2,c
  3249                           
  3250                           ;main.c: 245:     } else if (9500 <= percent) {
  3251   004344  EFBD  F021         	goto	l923
  3252   004348                     l3928:
  3253   004348  0E1C               	movlw	28
  3254   00434A  5C07               	subwf	calculate_P@percent^(0+1280),w,c
  3255   00434C  0E25               	movlw	37
  3256   00434E  5808               	subwfb	(calculate_P@percent+1)^(0+1280),w,c
  3257   004350  A0D8               	btfss	status,0,c
  3258   004352  EFAD  F021         	goto	u3881
  3259   004356  EFAF  F021         	goto	u3880
  3260   00435A                     u3881:
  3261   00435A  EFBD  F021         	goto	l917
  3262   00435E                     u3880:
  3263   00435E                     
  3264                           ;main.c: 247:         *p0 = 0xFF;
  3265   00435E  C503  F4D9         	movff	calculate_P@p0,fsr2l
  3266   004362  C504  F4DA         	movff	calculate_P@p0+1,fsr2h
  3267   004366  0EFF               	movlw	255
  3268   004368  6EDF               	movwf	indf2,c
  3269                           
  3270                           ;main.c: 248:         *p1 = 0xE9;
  3271   00436A  C505  F4D9         	movff	calculate_P@p1,fsr2l
  3272   00436E  C506  F4DA         	movff	calculate_P@p1+1,fsr2h
  3273   004372  0EE9               	movlw	233
  3274   004374  6EDF               	movwf	indf2,c
  3275   004376  EFBD  F021         	goto	l923
  3276   00437A                     l917:
  3277   00437A                     l923:
  3278   00437A  0012               	return		;funcret
  3279   00437C                     __end_of_calculate_P:
  3280                           	callstack 0
  3281                           
  3282 ;; *************** function _Timer0_Start *****************
  3283 ;; Defined at:
  3284 ;;		line 77 in file "mcc_generated_files/timer/src/tmr0.c"
  3285 ;; Parameters:    Size  Location     Type
  3286 ;;		None
  3287 ;; Auto vars:     Size  Location     Type
  3288 ;;		None
  3289 ;; Return value:  Size  Location     Type
  3290 ;;                  1    wreg      void 
  3291 ;; Registers used:
  3292 ;;		None
  3293 ;; Tracked objects:
  3294 ;;		On entry : 0/0
  3295 ;;		On exit  : 0/0
  3296 ;;		Unchanged: 0/0
  3297 ;; Data sizes:     COMRAM   BANK5   BANK6   BANK7   BANK8   BANK9  BANK10  BANK11  BANK12  BANK13  BANK14  BANK15  BANK1
      +6  BANK17  BANK18  BANK19  BANK20  BANK21  BANK22  BANK23  BANK24  BANK25  BANK26  BANK27  BANK28  BANK29  BANK30  BANK3
      +1  BANK32  BANK33  BANK34  BANK35  BANK36  BANK37  BANK38  BANK39  BANK40  BANK41  BANK42  BANK43  BANK44  BANK45  BANK4
      +6  BANK47  BANK48  BANK49  BANK50  BANK51  BANK52  BANK53  BANK54
  3298 ;;      Params:         0       0       0       0       0       0       0       0       0       0       0       0       
      +0       0       0       0       0       0       0       0       0       0       0       0       0       0       0       
      +0       0       0       0       0       0       0       0       0       0       0       0       0       0       0       
      +0       0       0       0       0       0       0       0       0
  3299 ;;      Locals:         0       0       0       0       0       0       0       0       0       0       0       0       
      +0       0       0       0       0       0       0       0       0       0       0       0       0       0       0       
      +0       0       0       0       0       0       0       0       0       0       0       0       0       0       0       
      +0       0       0       0       0       0       0       0       0
  3300 ;;      Temps:          0       0       0       0       0       0       0       0       0       0       0       0       
      +0       0       0       0       0       0       0       0       0       0       0       0       0       0       0       
      +0       0       0       0       0       0       0       0       0       0       0       0       0       0       0       
      +0       0       0       0       0       0       0       0       0
  3301 ;;      Totals:         0       0       0       0       0       0       0       0       0       0       0       0       
      +0       0       0       0       0       0       0       0       0       0       0       0       0       0       0       
      +0       0       0       0       0       0       0       0       0       0       0       0       0       0       0       
      +0       0       0       0       0       0       0       0       0
  3302 ;;Total ram usage:        0 bytes
  3303 ;; Hardware stack levels used: 1
  3304 ;; Hardware stack levels required when called: 3
  3305 ;; This function calls:
  3306 ;;		Nothing
  3307 ;; This function is called by:
  3308 ;;		_main
  3309 ;; This function uses a non-reentrant model
  3310 ;;
  3311                           
  3312                           	psect	text10
  3313   005B1C                     __ptext10:
  3314                           	callstack 0
  3315   005B1C                     _Timer0_Start:
  3316                           	callstack 123
  3317   005B1C                     
  3318                           ;mcc_generated_files/timer/src/tmr0.c: 79:     T0CON0bits.T0EN = 1;
  3319   005B1C  0103               	movlb	3	; () banked
  3320   005B1E  8F1A               	bsf	26,7,b	;volatile
  3321   005B20                     
  3322                           ; BSR set to: 3
  3323   005B20  0012               	return		;funcret
  3324   005B22                     __end_of_Timer0_Start:
  3325                           	callstack 0
  3326                           
  3327 ;; *************** function _SYSTEM_Initialize *****************
  3328 ;; Defined at:
  3329 ;;		line 38 in file "mcc_generated_files/system/src/system.c"
  3330 ;; Parameters:    Size  Location     Type
  3331 ;;		None
  3332 ;; Auto vars:     Size  Location     Type
  3333 ;;		None
  3334 ;; Return value:  Size  Location     Type
  3335 ;;                  1    wreg      void 
  3336 ;; Registers used:
  3337 ;;		wreg, fsr2l, fsr2h, status,2, status,0, prodl, prodh, cstack
  3338 ;; Tracked objects:
  3339 ;;		On entry : 0/0
  3340 ;;		On exit  : 0/0
  3341 ;;		Unchanged: 0/0
  3342 ;; Data sizes:     COMRAM   BANK5   BANK6   BANK7   BANK8   BANK9  BANK10  BANK11  BANK12  BANK13  BANK14  BANK15  BANK1
      +6  BANK17  BANK18  BANK19  BANK20  BANK21  BANK22  BANK23  BANK24  BANK25  BANK26  BANK27  BANK28  BANK29  BANK30  BANK3
      +1  BANK32  BANK33  BANK34  BANK35  BANK36  BANK37  BANK38  BANK39  BANK40  BANK41  BANK42  BANK43  BANK44  BANK45  BANK4
      +6  BANK47  BANK48  BANK49  BANK50  BANK51  BANK52  BANK53  BANK54
  3343 ;;      Params:         0       0       0       0       0       0       0       0       0       0       0       0       
      +0       0       0       0       0       0       0       0       0       0       0       0       0       0       0       
      +0       0       0       0       0       0       0       0       0       0       0       0       0       0       0       
      +0       0       0       0       0       0       0       0       0
  3344 ;;      Locals:         0       0       0       0       0       0       0       0       0       0       0       0       
      +0       0       0       0       0       0       0       0       0       0       0       0       0       0       0       
      +0       0       0       0       0       0       0       0       0       0       0       0       0       0       0       
      +0       0       0       0       0       0       0       0       0
  3345 ;;      Temps:          0       0       0       0       0       0       0       0       0       0       0       0       
      +0       0       0       0       0       0       0       0       0       0       0       0       0       0       0       
      +0       0       0       0       0       0       0       0       0       0       0       0       0       0       0       
      +0       0       0       0       0       0       0       0       0
  3346 ;;      Totals:         0       0       0       0       0       0       0       0       0       0       0       0       
      +0       0       0       0       0       0       0       0       0       0       0       0       0       0       0       
      +0       0       0       0       0       0       0       0       0       0       0       0       0       0       0       
      +0       0       0       0       0       0       0       0       0
  3347 ;;Total ram usage:        0 bytes
  3348 ;; Hardware stack levels used: 1
  3349 ;; Hardware stack levels required when called: 6
  3350 ;; This function calls:
  3351 ;;		_CAN1_Initialize
  3352 ;;		_CLOCK_Initialize
  3353 ;;		_INTERRUPT_Initialize
  3354 ;;		_PIN_MANAGER_Initialize
  3355 ;;		_PMD_Initialize
  3356 ;;		_SPI2_Initialize
  3357 ;;		_Timer0_Initialize
  3358 ;;		_WWDT_Initialize
  3359 ;; This function is called by:
  3360 ;;		_main
  3361 ;; This function uses a non-reentrant model
  3362 ;;
  3363                           
  3364                           	psect	text11
  3365   005948                     __ptext11:
  3366                           	callstack 0
  3367   005948                     _SYSTEM_Initialize:
  3368                           	callstack 120
  3369   005948                     
  3370                           ;mcc_generated_files/system/src/system.c: 40:     CLOCK_Initialize();
  3371   005948  ECB5  F02C         	call	_CLOCK_Initialize	;wreg free
  3372                           
  3373                           ;mcc_generated_files/system/src/system.c: 41:     PIN_MANAGER_Initialize();
  3374   00594C  EC3A  F029         	call	_PIN_MANAGER_Initialize	;wreg free
  3375   005950                     
  3376                           ;mcc_generated_files/system/src/system.c: 42:     CAN1_Initialize();
  3377   005950  EC48  F02B         	call	_CAN1_Initialize	;wreg free
  3378   005954                     
  3379                           ;mcc_generated_files/system/src/system.c: 43:     PMD_Initialize();
  3380   005954  EC7C  F02C         	call	_PMD_Initialize	;wreg free
  3381   005958                     
  3382                           ;mcc_generated_files/system/src/system.c: 44:     SPI2_Initialize();
  3383   005958  ECF3  F02C         	call	_SPI2_Initialize	;wreg free
  3384   00595C                     
  3385                           ;mcc_generated_files/system/src/system.c: 45:     Timer0_Initialize();
  3386   00595C  EC20  F02C         	call	_Timer0_Initialize	;wreg free
  3387   005960                     
  3388                           ;mcc_generated_files/system/src/system.c: 46:     WWDT_Initialize();
  3389   005960  EC58  F02D         	call	_WWDT_Initialize	;wreg free
  3390   005964                     
  3391                           ;mcc_generated_files/system/src/system.c: 47:     INTERRUPT_Initialize();
  3392   005964  ECC3  F02B         	call	_INTERRUPT_Initialize	;wreg free
  3393   005968  0012               	return		;funcret
  3394   00596A                     __end_of_SYSTEM_Initialize:
  3395                           	callstack 0
  3396                           
  3397 ;; *************** function _WWDT_Initialize *****************
  3398 ;; Defined at:
  3399 ;;		line 35 in file "mcc_generated_files/system/src/watchdog.c"
  3400 ;; Parameters:    Size  Location     Type
  3401 ;;		None
  3402 ;; Auto vars:     Size  Location     Type
  3403 ;;		None
  3404 ;; Return value:  Size  Location     Type
  3405 ;;                  1    wreg      void 
  3406 ;; Registers used:
  3407 ;;		wreg, status,2
  3408 ;; Tracked objects:
  3409 ;;		On entry : 0/0
  3410 ;;		On exit  : 0/0
  3411 ;;		Unchanged: 0/0
  3412 ;; Data sizes:     COMRAM   BANK5   BANK6   BANK7   BANK8   BANK9  BANK10  BANK11  BANK12  BANK13  BANK14  BANK15  BANK1
      +6  BANK17  BANK18  BANK19  BANK20  BANK21  BANK22  BANK23  BANK24  BANK25  BANK26  BANK27  BANK28  BANK29  BANK30  BANK3
      +1  BANK32  BANK33  BANK34  BANK35  BANK36  BANK37  BANK38  BANK39  BANK40  BANK41  BANK42  BANK43  BANK44  BANK45  BANK4
      +6  BANK47  BANK48  BANK49  BANK50  BANK51  BANK52  BANK53  BANK54
  3413 ;;      Params:         0       0       0       0       0       0       0       0       0       0       0       0       
      +0       0       0       0       0       0       0       0       0       0       0       0       0       0       0       
      +0       0       0       0       0       0       0       0       0       0       0       0       0       0       0       
      +0       0       0       0       0       0       0       0       0
  3414 ;;      Locals:         0       0       0       0       0       0       0       0       0       0       0       0       
      +0       0       0       0       0       0       0       0       0       0       0       0       0       0       0       
      +0       0       0       0       0       0       0       0       0       0       0       0       0       0       0       
      +0       0       0       0       0       0       0       0       0
  3415 ;;      Temps:          0       0       0       0       0       0       0       0       0       0       0       0       
      +0       0       0       0       0       0       0       0       0       0       0       0       0       0       0       
      +0       0       0       0       0       0       0       0       0       0       0       0       0       0       0       
      +0       0       0       0       0       0       0       0       0
  3416 ;;      Totals:         0       0       0       0       0       0       0       0       0       0       0       0       
      +0       0       0       0       0       0       0       0       0       0       0       0       0       0       0       
      +0       0       0       0       0       0       0       0       0       0       0       0       0       0       0       
      +0       0       0       0       0       0       0       0       0
  3417 ;;Total ram usage:        0 bytes
  3418 ;; Hardware stack levels used: 1
  3419 ;; Hardware stack levels required when called: 3
  3420 ;; This function calls:
  3421 ;;		Nothing
  3422 ;; This function is called by:
  3423 ;;		_SYSTEM_Initialize
  3424 ;; This function uses a non-reentrant model
  3425 ;;
  3426                           
  3427                           	psect	text12
  3428   005AB0                     __ptext12:
  3429                           	callstack 0
  3430   005AB0                     _WWDT_Initialize:
  3431                           	callstack 122
  3432   005AB0                     
  3433                           ;mcc_generated_files/system/src/watchdog.c: 38:     WDTCON0 = 0x0;
  3434   005AB0  0E00               	movlw	0
  3435   005AB2  0100               	movlb	0	; () banked
  3436   005AB4  6F78               	movwf	120,b	;volatile
  3437                           
  3438                           ;mcc_generated_files/system/src/watchdog.c: 40:     WDTCON1 = 0x0;
  3439   005AB6  0E00               	movlw	0
  3440   005AB8  6F79               	movwf	121,b	;volatile
  3441                           
  3442                           ;mcc_generated_files/system/src/watchdog.c: 42:     PCON0 = 0x30;
  3443   005ABA  0E30               	movlw	48
  3444   005ABC  6EF0               	movwf	240,c	;volatile
  3445   005ABE                     
  3446                           ; BSR set to: 0
  3447   005ABE  0012               	return		;funcret
  3448   005AC0                     __end_of_WWDT_Initialize:
  3449                           	callstack 0
  3450                           
  3451 ;; *************** function _Timer0_Initialize *****************
  3452 ;; Defined at:
  3453 ;;		line 50 in file "mcc_generated_files/timer/src/tmr0.c"
  3454 ;; Parameters:    Size  Location     Type
  3455 ;;		None
  3456 ;; Auto vars:     Size  Location     Type
  3457 ;;		None
  3458 ;; Return value:  Size  Location     Type
  3459 ;;                  1    wreg      void 
  3460 ;; Registers used:
  3461 ;;		wreg, status,2, status,0, cstack
  3462 ;; Tracked objects:
  3463 ;;		On entry : 0/0
  3464 ;;		On exit  : 0/0
  3465 ;;		Unchanged: 0/0
  3466 ;; Data sizes:     COMRAM   BANK5   BANK6   BANK7   BANK8   BANK9  BANK10  BANK11  BANK12  BANK13  BANK14  BANK15  BANK1
      +6  BANK17  BANK18  BANK19  BANK20  BANK21  BANK22  BANK23  BANK24  BANK25  BANK26  BANK27  BANK28  BANK29  BANK30  BANK3
      +1  BANK32  BANK33  BANK34  BANK35  BANK36  BANK37  BANK38  BANK39  BANK40  BANK41  BANK42  BANK43  BANK44  BANK45  BANK4
      +6  BANK47  BANK48  BANK49  BANK50  BANK51  BANK52  BANK53  BANK54
  3467 ;;      Params:         0       0       0       0       0       0       0       0       0       0       0       0       
      +0       0       0       0       0       0       0       0       0       0       0       0       0       0       0       
      +0       0       0       0       0       0       0       0       0       0       0       0       0       0       0       
      +0       0       0       0       0       0       0       0       0
  3468 ;;      Locals:         0       0       0       0       0       0       0       0       0       0       0       0       
      +0       0       0       0       0       0       0       0       0       0       0       0       0       0       0       
      +0       0       0       0       0       0       0       0       0       0       0       0       0       0       0       
      +0       0       0       0       0       0       0       0       0
  3469 ;;      Temps:          2       0       0       0       0       0       0       0       0       0       0       0       
      +0       0       0       0       0       0       0       0       0       0       0       0       0       0       0       
      +0       0       0       0       0       0       0       0       0       0       0       0       0       0       0       
      +0       0       0       0       0       0       0       0       0
  3470 ;;      Totals:         2       0       0       0       0       0       0       0       0       0       0       0       
      +0       0       0       0       0       0       0       0       0       0       0       0       0       0       0       
      +0       0       0       0       0       0       0       0       0       0       0       0       0       0       0       
      +0       0       0       0       0       0       0       0       0
  3471 ;;Total ram usage:        2 bytes
  3472 ;; Hardware stack levels used: 1
  3473 ;; Hardware stack levels required when called: 4
  3474 ;; This function calls:
  3475 ;;		_Timer0_OverflowCallbackRegister
  3476 ;; This function is called by:
  3477 ;;		_SYSTEM_Initialize
  3478 ;; This function uses a non-reentrant model
  3479 ;;
  3480                           
  3481                           	psect	text13
  3482   005840                     __ptext13:
  3483                           	callstack 0
  3484   005840                     _Timer0_Initialize:
  3485                           	callstack 121
  3486   005840                     
  3487                           ;mcc_generated_files/timer/src/tmr0.c: 53:     TMR0H = 0xC1;
  3488   005840  0EC1               	movlw	193
  3489   005842  0103               	movlb	3	; () banked
  3490   005844  6F19               	movwf	25,b	;volatile
  3491                           
  3492                           ;mcc_generated_files/timer/src/tmr0.c: 56:     TMR0L = 0x80;
  3493   005846  0E80               	movlw	128
  3494   005848  6F18               	movwf	24,b	;volatile
  3495                           
  3496                           ;mcc_generated_files/timer/src/tmr0.c: 59:     T0CON1 = 0x50;
  3497   00584A  0E50               	movlw	80
  3498   00584C  6F1B               	movwf	27,b	;volatile
  3499                           
  3500                           ;mcc_generated_files/timer/src/tmr0.c: 62:     timerTMR0ReloadVal16bit = ((uint16_t)TMR0
      +                          H << 8) | TMR0L;
  3501   00584E  5119               	movf	25,w,b	;volatile
  3502   005850  6E06               	movwf	??_Timer0_Initialize^(0+1280),c
  3503   005852  5118               	movf	24,w,b	;volatile
  3504   005854  6E4E               	movwf	_timerTMR0ReloadVal16bit^(0+1280),c	;volatile
  3505   005856  C506  F54F         	movff	??_Timer0_Initialize,_timerTMR0ReloadVal16bit+1	;volatile
  3506   00585A                     
  3507                           ; BSR set to: 3
  3508                           ;mcc_generated_files/timer/src/tmr0.c: 65:     Timer0_OverflowCallbackRegister(Timer0_De
      +                          faultOverflowCallback);
  3509   00585A  0E22               	movlw	low _Timer0_DefaultOverflowCallback
  3510   00585C  6E03               	movwf	Timer0_OverflowCallbackRegister@CallbackHandler^(0+1280),c
  3511   00585E  0E5B               	movlw	high _Timer0_DefaultOverflowCallback
  3512   005860  6E04               	movwf	(Timer0_OverflowCallbackRegister@CallbackHandler+1)^(0+1280),c
  3513   005862  0E00               	movlw	low (_Timer0_DefaultOverflowCallback shr (0+16))
  3514   005864  6E05               	movwf	(Timer0_OverflowCallbackRegister@CallbackHandler+2)^(0+1280),c
  3515   005866  EC67  F02D         	call	_Timer0_OverflowCallbackRegister	;wreg free
  3516   00586A                     
  3517                           ;mcc_generated_files/timer/src/tmr0.c: 68:     PIR3bits.TMR0IF = 0;
  3518   00586A  9EB1               	bcf	177,7,c	;volatile
  3519   00586C                     
  3520                           ;mcc_generated_files/timer/src/tmr0.c: 71:     PIE3bits.TMR0IE = 1;
  3521   00586C  8EA1               	bsf	161,7,c	;volatile
  3522   00586E                     
  3523                           ;mcc_generated_files/timer/src/tmr0.c: 74:     T0CON0 = 0x90;
  3524   00586E  0E90               	movlw	144
  3525   005870  0103               	movlb	3	; () banked
  3526   005872  6F1A               	movwf	26,b	;volatile
  3527   005874                     
  3528                           ; BSR set to: 3
  3529   005874  0012               	return		;funcret
  3530   005876                     __end_of_Timer0_Initialize:
  3531                           	callstack 0
  3532                           
  3533 ;; *************** function _Timer0_OverflowCallbackRegister *****************
  3534 ;; Defined at:
  3535 ;;		line 131 in file "mcc_generated_files/timer/src/tmr0.c"
  3536 ;; Parameters:    Size  Location     Type
  3537 ;;  CallbackHand    3    2[COMRAM] PTR FTN()void 
  3538 ;;		 -> UpdateTmr(1), Timer0_DefaultOverflowCallback(1), 
  3539 ;; Auto vars:     Size  Location     Type
  3540 ;;		None
  3541 ;; Return value:  Size  Location     Type
  3542 ;;                  1    wreg      void 
  3543 ;; Registers used:
  3544 ;;		wreg, status,2, status,0
  3545 ;; Tracked objects:
  3546 ;;		On entry : 0/0
  3547 ;;		On exit  : 0/0
  3548 ;;		Unchanged: 0/0
  3549 ;; Data sizes:     COMRAM   BANK5   BANK6   BANK7   BANK8   BANK9  BANK10  BANK11  BANK12  BANK13  BANK14  BANK15  BANK1
      +6  BANK17  BANK18  BANK19  BANK20  BANK21  BANK22  BANK23  BANK24  BANK25  BANK26  BANK27  BANK28  BANK29  BANK30  BANK3
      +1  BANK32  BANK33  BANK34  BANK35  BANK36  BANK37  BANK38  BANK39  BANK40  BANK41  BANK42  BANK43  BANK44  BANK45  BANK4
      +6  BANK47  BANK48  BANK49  BANK50  BANK51  BANK52  BANK53  BANK54
  3550 ;;      Params:         3       0       0       0       0       0       0       0       0       0       0       0       
      +0       0       0       0       0       0       0       0       0       0       0       0       0       0       0       
      +0       0       0       0       0       0       0       0       0       0       0       0       0       0       0       
      +0       0       0       0       0       0       0       0       0
  3551 ;;      Locals:         0       0       0       0       0       0       0       0       0       0       0       0       
      +0       0       0       0       0       0       0       0       0       0       0       0       0       0       0       
      +0       0       0       0       0       0       0       0       0       0       0       0       0       0       0       
      +0       0       0       0       0       0       0       0       0
  3552 ;;      Temps:          0       0       0       0       0       0       0       0       0       0       0       0       
      +0       0       0       0       0       0       0       0       0       0       0       0       0       0       0       
      +0       0       0       0       0       0       0       0       0       0       0       0       0       0       0       
      +0       0       0       0       0       0       0       0       0
  3553 ;;      Totals:         3       0       0       0       0       0       0       0       0       0       0       0       
      +0       0       0       0       0       0       0       0       0       0       0       0       0       0       0       
      +0       0       0       0       0       0       0       0       0       0       0       0       0       0       0       
      +0       0       0       0       0       0       0       0       0
  3554 ;;Total ram usage:        3 bytes
  3555 ;; Hardware stack levels used: 1
  3556 ;; Hardware stack levels required when called: 3
  3557 ;; This function calls:
  3558 ;;		Nothing
  3559 ;; This function is called by:
  3560 ;;		_Timer0_Initialize
  3561 ;;		_main
  3562 ;; This function uses a non-reentrant model
  3563 ;;
  3564                           
  3565                           	psect	text14
  3566   005ACE                     __ptext14:
  3567                           	callstack 0
  3568   005ACE                     _Timer0_OverflowCallbackRegister:
  3569                           	callstack 123
  3570   005ACE                     
  3571                           ;mcc_generated_files/timer/src/tmr0.c: 131: void Timer0_OverflowCallbackRegister(void (*
      +                           CallbackHandler)(void));mcc_generated_files/timer/src/tmr0.c: 132: {;mcc_generated_file
      +                          s/timer/src/tmr0.c: 133:     Timer0_OverflowCallback = CallbackHandler;
  3572   005ACE  C503  F53F         	movff	Timer0_OverflowCallbackRegister@CallbackHandler,_Timer0_OverflowCallback
  3573   005AD2  C504  F540         	movff	Timer0_OverflowCallbackRegister@CallbackHandler+1,_Timer0_OverflowCallback+1
  3574   005AD6  C505  F541         	movff	Timer0_OverflowCallbackRegister@CallbackHandler+2,_Timer0_OverflowCallback+2
  3575   005ADA  0012               	return		;funcret
  3576   005ADC                     __end_of_Timer0_OverflowCallbackRegister:
  3577                           	callstack 0
  3578                           
  3579 ;; *************** function _SPI2_Initialize *****************
  3580 ;; Defined at:
  3581 ;;		line 70 in file "mcc_generated_files/spi/src/spi2.c"
  3582 ;; Parameters:    Size  Location     Type
  3583 ;;		None
  3584 ;; Auto vars:     Size  Location     Type
  3585 ;;		None
  3586 ;; Return value:  Size  Location     Type
  3587 ;;                  1    wreg      void 
  3588 ;; Registers used:
  3589 ;;		wreg, status,2
  3590 ;; Tracked objects:
  3591 ;;		On entry : 0/0
  3592 ;;		On exit  : 0/0
  3593 ;;		Unchanged: 0/0
  3594 ;; Data sizes:     COMRAM   BANK5   BANK6   BANK7   BANK8   BANK9  BANK10  BANK11  BANK12  BANK13  BANK14  BANK15  BANK1
      +6  BANK17  BANK18  BANK19  BANK20  BANK21  BANK22  BANK23  BANK24  BANK25  BANK26  BANK27  BANK28  BANK29  BANK30  BANK3
      +1  BANK32  BANK33  BANK34  BANK35  BANK36  BANK37  BANK38  BANK39  BANK40  BANK41  BANK42  BANK43  BANK44  BANK45  BANK4
      +6  BANK47  BANK48  BANK49  BANK50  BANK51  BANK52  BANK53  BANK54
  3595 ;;      Params:         0       0       0       0       0       0       0       0       0       0       0       0       
      +0       0       0       0       0       0       0       0       0       0       0       0       0       0       0       
      +0       0       0       0       0       0       0       0       0       0       0       0       0       0       0       
      +0       0       0       0       0       0       0       0       0
  3596 ;;      Locals:         0       0       0       0       0       0       0       0       0       0       0       0       
      +0       0       0       0       0       0       0       0       0       0       0       0       0       0       0       
      +0       0       0       0       0       0       0       0       0       0       0       0       0       0       0       
      +0       0       0       0       0       0       0       0       0
  3597 ;;      Temps:          0       0       0       0       0       0       0       0       0       0       0       0       
      +0       0       0       0       0       0       0       0       0       0       0       0       0       0       0       
      +0       0       0       0       0       0       0       0       0       0       0       0       0       0       0       
      +0       0       0       0       0       0       0       0       0
  3598 ;;      Totals:         0       0       0       0       0       0       0       0       0       0       0       0       
      +0       0       0       0       0       0       0       0       0       0       0       0       0       0       0       
      +0       0       0       0       0       0       0       0       0       0       0       0       0       0       0       
      +0       0       0       0       0       0       0       0       0
  3599 ;;Total ram usage:        0 bytes
  3600 ;; Hardware stack levels used: 1
  3601 ;; Hardware stack levels required when called: 3
  3602 ;; This function calls:
  3603 ;;		Nothing
  3604 ;; This function is called by:
  3605 ;;		_SYSTEM_Initialize
  3606 ;; This function uses a non-reentrant model
  3607 ;;
  3608                           
  3609                           	psect	text15
  3610   0059E6                     __ptext15:
  3611                           	callstack 0
  3612   0059E6                     _SPI2_Initialize:
  3613                           	callstack 122
  3614   0059E6                     
  3615                           ;mcc_generated_files/spi/src/spi2.c: 73:     SPI2CON1 = 0x40;
  3616   0059E6  0E40               	movlw	64
  3617   0059E8  0100               	movlb	0	; () banked
  3618   0059EA  6F92               	movwf	146,b	;volatile
  3619                           
  3620                           ;mcc_generated_files/spi/src/spi2.c: 75:     SPI2CON2 = 0x0;
  3621   0059EC  0E00               	movlw	0
  3622   0059EE  6F93               	movwf	147,b	;volatile
  3623                           
  3624                           ;mcc_generated_files/spi/src/spi2.c: 77:     SPI2CLK = 0x0;
  3625   0059F0  0E00               	movlw	0
  3626   0059F2  6F99               	movwf	153,b	;volatile
  3627                           
  3628                           ;mcc_generated_files/spi/src/spi2.c: 79:     SPI2BAUD = 0x3F;
  3629   0059F4  0E3F               	movlw	63
  3630   0059F6  6F96               	movwf	150,b	;volatile
  3631   0059F8                     
  3632                           ; BSR set to: 0
  3633                           ;mcc_generated_files/spi/src/spi2.c: 80:     TRISBbits.TRISB3 = 0;
  3634   0059F8  96C7               	bcf	199,3,c	;volatile
  3635                           
  3636                           ;mcc_generated_files/spi/src/spi2.c: 82:     SPI2CON0 = 0x2;
  3637   0059FA  0E02               	movlw	2
  3638   0059FC  6F91               	movwf	145,b	;volatile
  3639   0059FE                     
  3640                           ; BSR set to: 0
  3641   0059FE  0012               	return		;funcret
  3642   005A00                     __end_of_SPI2_Initialize:
  3643                           	callstack 0
  3644                           
  3645 ;; *************** function _PMD_Initialize *****************
  3646 ;; Defined at:
  3647 ;;		line 50 in file "mcc_generated_files/system/src/system.c"
  3648 ;; Parameters:    Size  Location     Type
  3649 ;;		None
  3650 ;; Auto vars:     Size  Location     Type
  3651 ;;		None
  3652 ;; Return value:  Size  Location     Type
  3653 ;;                  1    wreg      void 
  3654 ;; Registers used:
  3655 ;;		wreg, status,2
  3656 ;; Tracked objects:
  3657 ;;		On entry : 0/0
  3658 ;;		On exit  : 0/0
  3659 ;;		Unchanged: 0/0
  3660 ;; Data sizes:     COMRAM   BANK5   BANK6   BANK7   BANK8   BANK9  BANK10  BANK11  BANK12  BANK13  BANK14  BANK15  BANK1
      +6  BANK17  BANK18  BANK19  BANK20  BANK21  BANK22  BANK23  BANK24  BANK25  BANK26  BANK27  BANK28  BANK29  BANK30  BANK3
      +1  BANK32  BANK33  BANK34  BANK35  BANK36  BANK37  BANK38  BANK39  BANK40  BANK41  BANK42  BANK43  BANK44  BANK45  BANK4
      +6  BANK47  BANK48  BANK49  BANK50  BANK51  BANK52  BANK53  BANK54
  3661 ;;      Params:         0       0       0       0       0       0       0       0       0       0       0       0       
      +0       0       0       0       0       0       0       0       0       0       0       0       0       0       0       
      +0       0       0       0       0       0       0       0       0       0       0       0       0       0       0       
      +0       0       0       0       0       0       0       0       0
  3662 ;;      Locals:         0       0       0       0       0       0       0       0       0       0       0       0       
      +0       0       0       0       0       0       0       0       0       0       0       0       0       0       0       
      +0       0       0       0       0       0       0       0       0       0       0       0       0       0       0       
      +0       0       0       0       0       0       0       0       0
  3663 ;;      Temps:          0       0       0       0       0       0       0       0       0       0       0       0       
      +0       0       0       0       0       0       0       0       0       0       0       0       0       0       0       
      +0       0       0       0       0       0       0       0       0       0       0       0       0       0       0       
      +0       0       0       0       0       0       0       0       0
  3664 ;;      Totals:         0       0       0       0       0       0       0       0       0       0       0       0       
      +0       0       0       0       0       0       0       0       0       0       0       0       0       0       0       
      +0       0       0       0       0       0       0       0       0       0       0       0       0       0       0       
      +0       0       0       0       0       0       0       0       0
  3665 ;;Total ram usage:        0 bytes
  3666 ;; Hardware stack levels used: 1
  3667 ;; Hardware stack levels required when called: 3
  3668 ;; This function calls:
  3669 ;;		Nothing
  3670 ;; This function is called by:
  3671 ;;		_SYSTEM_Initialize
  3672 ;; This function uses a non-reentrant model
  3673 ;;
  3674                           
  3675                           	psect	text16
  3676   0058F8                     __ptext16:
  3677                           	callstack 0
  3678   0058F8                     _PMD_Initialize:
  3679                           	callstack 122
  3680   0058F8                     
  3681                           ;mcc_generated_files/system/src/system.c: 53:     PMD0 = 0x0;
  3682   0058F8  0E00               	movlw	0
  3683   0058FA  0100               	movlb	0	; () banked
  3684   0058FC  6F60               	movwf	96,b	;volatile
  3685                           
  3686                           ;mcc_generated_files/system/src/system.c: 55:     PMD1 = 0x0;
  3687   0058FE  0E00               	movlw	0
  3688   005900  6F61               	movwf	97,b	;volatile
  3689                           
  3690                           ;mcc_generated_files/system/src/system.c: 57:     PMD2 = 0x0;
  3691   005902  0E00               	movlw	0
  3692   005904  6F62               	movwf	98,b	;volatile
  3693                           
  3694                           ;mcc_generated_files/system/src/system.c: 59:     PMD3 = 0x0;
  3695   005906  0E00               	movlw	0
  3696   005908  6F63               	movwf	99,b	;volatile
  3697                           
  3698                           ;mcc_generated_files/system/src/system.c: 61:     PMD4 = 0x0;
  3699   00590A  0E00               	movlw	0
  3700   00590C  6F64               	movwf	100,b	;volatile
  3701                           
  3702                           ;mcc_generated_files/system/src/system.c: 63:     PMD5 = 0x0;
  3703   00590E  0E00               	movlw	0
  3704   005910  6F65               	movwf	101,b	;volatile
  3705                           
  3706                           ;mcc_generated_files/system/src/system.c: 65:     PMD6 = 0x0;
  3707   005912  0E00               	movlw	0
  3708   005914  6F66               	movwf	102,b	;volatile
  3709                           
  3710                           ;mcc_generated_files/system/src/system.c: 67:     PMD7 = 0x0;
  3711   005916  0E00               	movlw	0
  3712   005918  6F67               	movwf	103,b	;volatile
  3713                           
  3714                           ;mcc_generated_files/system/src/system.c: 69:     PMD8 = 0x0;
  3715   00591A  0E00               	movlw	0
  3716   00591C  6F68               	movwf	104,b	;volatile
  3717   00591E                     
  3718                           ; BSR set to: 0
  3719   00591E  0012               	return		;funcret
  3720   005920                     __end_of_PMD_Initialize:
  3721                           	callstack 0
  3722                           
  3723 ;; *************** function _PIN_MANAGER_Initialize *****************
  3724 ;; Defined at:
  3725 ;;		line 38 in file "mcc_generated_files/system/src/pins.c"
  3726 ;; Parameters:    Size  Location     Type
  3727 ;;		None
  3728 ;; Auto vars:     Size  Location     Type
  3729 ;;		None
  3730 ;; Return value:  Size  Location     Type
  3731 ;;                  1    wreg      void 
  3732 ;; Registers used:
  3733 ;;		wreg, status,2
  3734 ;; Tracked objects:
  3735 ;;		On entry : 0/0
  3736 ;;		On exit  : 0/0
  3737 ;;		Unchanged: 0/0
  3738 ;; Data sizes:     COMRAM   BANK5   BANK6   BANK7   BANK8   BANK9  BANK10  BANK11  BANK12  BANK13  BANK14  BANK15  BANK1
      +6  BANK17  BANK18  BANK19  BANK20  BANK21  BANK22  BANK23  BANK24  BANK25  BANK26  BANK27  BANK28  BANK29  BANK30  BANK3
      +1  BANK32  BANK33  BANK34  BANK35  BANK36  BANK37  BANK38  BANK39  BANK40  BANK41  BANK42  BANK43  BANK44  BANK45  BANK4
      +6  BANK47  BANK48  BANK49  BANK50  BANK51  BANK52  BANK53  BANK54
  3739 ;;      Params:         0       0       0       0       0       0       0       0       0       0       0       0       
      +0       0       0       0       0       0       0       0       0       0       0       0       0       0       0       
      +0       0       0       0       0       0       0       0       0       0       0       0       0       0       0       
      +0       0       0       0       0       0       0       0       0
  3740 ;;      Locals:         0       0       0       0       0       0       0       0       0       0       0       0       
      +0       0       0       0       0       0       0       0       0       0       0       0       0       0       0       
      +0       0       0       0       0       0       0       0       0       0       0       0       0       0       0       
      +0       0       0       0       0       0       0       0       0
  3741 ;;      Temps:          0       0       0       0       0       0       0       0       0       0       0       0       
      +0       0       0       0       0       0       0       0       0       0       0       0       0       0       0       
      +0       0       0       0       0       0       0       0       0       0       0       0       0       0       0       
      +0       0       0       0       0       0       0       0       0
  3742 ;;      Totals:         0       0       0       0       0       0       0       0       0       0       0       0       
      +0       0       0       0       0       0       0       0       0       0       0       0       0       0       0       
      +0       0       0       0       0       0       0       0       0       0       0       0       0       0       0       
      +0       0       0       0       0       0       0       0       0
  3743 ;;Total ram usage:        0 bytes
  3744 ;; Hardware stack levels used: 1
  3745 ;; Hardware stack levels required when called: 3
  3746 ;; This function calls:
  3747 ;;		Nothing
  3748 ;; This function is called by:
  3749 ;;		_SYSTEM_Initialize
  3750 ;; This function uses a non-reentrant model
  3751 ;;
  3752                           
  3753                           	psect	text17
  3754   005274                     __ptext17:
  3755                           	callstack 0
  3756   005274                     _PIN_MANAGER_Initialize:
  3757                           	callstack 122
  3758   005274                     
  3759                           ;mcc_generated_files/system/src/pins.c: 43:     LATA = 0x2;
  3760   005274  0E02               	movlw	2
  3761   005276  6EBE               	movwf	190,c	;volatile
  3762                           
  3763                           ;mcc_generated_files/system/src/pins.c: 44:     LATB = 0x0;
  3764   005278  0E00               	movlw	0
  3765   00527A  6EBF               	movwf	191,c	;volatile
  3766                           
  3767                           ;mcc_generated_files/system/src/pins.c: 45:     LATC = 0x0;
  3768   00527C  0E00               	movlw	0
  3769   00527E  6EC0               	movwf	192,c	;volatile
  3770                           
  3771                           ;mcc_generated_files/system/src/pins.c: 50:     TRISA = 0xFD;
  3772   005280  0EFD               	movlw	253
  3773   005282  6EC6               	movwf	198,c	;volatile
  3774                           
  3775                           ;mcc_generated_files/system/src/pins.c: 51:     TRISB = 0xFD;
  3776   005284  0EFD               	movlw	253
  3777   005286  6EC7               	movwf	199,c	;volatile
  3778                           
  3779                           ;mcc_generated_files/system/src/pins.c: 52:     TRISC = 0xFE;
  3780   005288  0EFE               	movlw	254
  3781   00528A  6EC8               	movwf	200,c	;volatile
  3782                           
  3783                           ;mcc_generated_files/system/src/pins.c: 53:     TRISE = 0x8;
  3784   00528C  0E08               	movlw	8
  3785   00528E  6ECA               	movwf	202,c	;volatile
  3786                           
  3787                           ;mcc_generated_files/system/src/pins.c: 58:     ANSELA = 0xFD;
  3788   005290  0EFD               	movlw	253
  3789   005292  0104               	movlb	4	; () banked
  3790   005294  6F00               	movwf	0,b	;volatile
  3791                           
  3792                           ;mcc_generated_files/system/src/pins.c: 59:     ANSELB = 0xF0;
  3793   005296  0EF0               	movlw	240
  3794   005298  6F08               	movwf	8,b	;volatile
  3795                           
  3796                           ;mcc_generated_files/system/src/pins.c: 60:     ANSELC = 0xFE;
  3797   00529A  0EFE               	movlw	254
  3798   00529C  6F10               	movwf	16,b	;volatile
  3799                           
  3800                           ;mcc_generated_files/system/src/pins.c: 65:     WPUA = 0x0;
  3801   00529E  0E00               	movlw	0
  3802   0052A0  6F01               	movwf	1,b	;volatile
  3803                           
  3804                           ;mcc_generated_files/system/src/pins.c: 66:     WPUB = 0x0;
  3805   0052A2  0E00               	movlw	0
  3806   0052A4  6F09               	movwf	9,b	;volatile
  3807                           
  3808                           ;mcc_generated_files/system/src/pins.c: 67:     WPUC = 0x0;
  3809   0052A6  0E00               	movlw	0
  3810   0052A8  6F11               	movwf	17,b	;volatile
  3811                           
  3812                           ;mcc_generated_files/system/src/pins.c: 68:     WPUE = 0x0;
  3813   0052AA  0E00               	movlw	0
  3814   0052AC  6F21               	movwf	33,b	;volatile
  3815                           
  3816                           ;mcc_generated_files/system/src/pins.c: 73:     RB1I2C = 0x0;
  3817   0052AE  0E00               	movlw	0
  3818   0052B0  0102               	movlb	2	; () banked
  3819   0052B2  6F89               	movwf	137,b	;volatile
  3820                           
  3821                           ;mcc_generated_files/system/src/pins.c: 74:     RB2I2C = 0x0;
  3822   0052B4  0E00               	movlw	0
  3823   0052B6  6F88               	movwf	136,b	;volatile
  3824                           
  3825                           ;mcc_generated_files/system/src/pins.c: 75:     RC3I2C = 0x0;
  3826   0052B8  0E00               	movlw	0
  3827   0052BA  6F87               	movwf	135,b	;volatile
  3828                           
  3829                           ;mcc_generated_files/system/src/pins.c: 76:     RC4I2C = 0x0;
  3830   0052BC  0E00               	movlw	0
  3831   0052BE  6F86               	movwf	134,b	;volatile
  3832                           
  3833                           ;mcc_generated_files/system/src/pins.c: 81:     ODCONA = 0x0;
  3834   0052C0  0E00               	movlw	0
  3835   0052C2  0104               	movlb	4	; () banked
  3836   0052C4  6F02               	movwf	2,b	;volatile
  3837                           
  3838                           ;mcc_generated_files/system/src/pins.c: 82:     ODCONB = 0x0;
  3839   0052C6  0E00               	movlw	0
  3840   0052C8  6F0A               	movwf	10,b	;volatile
  3841                           
  3842                           ;mcc_generated_files/system/src/pins.c: 83:     ODCONC = 0x0;
  3843   0052CA  0E00               	movlw	0
  3844   0052CC  6F12               	movwf	18,b	;volatile
  3845                           
  3846                           ;mcc_generated_files/system/src/pins.c: 88:     SLRCONA = 0xFD;
  3847   0052CE  0EFD               	movlw	253
  3848   0052D0  6F03               	movwf	3,b	;volatile
  3849                           
  3850                           ;mcc_generated_files/system/src/pins.c: 89:     SLRCONB = 0xF0;
  3851   0052D2  0EF0               	movlw	240
  3852   0052D4  6F0B               	movwf	11,b	;volatile
  3853                           
  3854                           ;mcc_generated_files/system/src/pins.c: 90:     SLRCONC = 0xFE;
  3855   0052D6  0EFE               	movlw	254
  3856   0052D8  6F13               	movwf	19,b	;volatile
  3857                           
  3858                           ;mcc_generated_files/system/src/pins.c: 95:     INLVLA = 0xFD;
  3859   0052DA  0EFD               	movlw	253
  3860   0052DC  6F04               	movwf	4,b	;volatile
  3861                           
  3862                           ;mcc_generated_files/system/src/pins.c: 96:     INLVLB = 0xF0;
  3863   0052DE  0EF0               	movlw	240
  3864   0052E0  6F0C               	movwf	12,b	;volatile
  3865                           
  3866                           ;mcc_generated_files/system/src/pins.c: 97:     INLVLC = 0xFE;
  3867   0052E2  0EFE               	movlw	254
  3868   0052E4  6F14               	movwf	20,b	;volatile
  3869                           
  3870                           ;mcc_generated_files/system/src/pins.c: 98:     INLVLE = 0x8;
  3871   0052E6  0E08               	movlw	8
  3872   0052E8  6F24               	movwf	36,b	;volatile
  3873                           
  3874                           ;mcc_generated_files/system/src/pins.c: 102:     SPI2SDIPPS = 0xA;
  3875   0052EA  0E0A               	movlw	10
  3876   0052EC  0102               	movlb	2	; () banked
  3877   0052EE  6F6E               	movwf	110,b	;volatile
  3878                           
  3879                           ;mcc_generated_files/system/src/pins.c: 103:     CANRXPPS = 0x8;
  3880   0052F0  0E08               	movlw	8
  3881   0052F2  6F3D               	movwf	61,b	;volatile
  3882                           
  3883                           ;mcc_generated_files/system/src/pins.c: 104:     RC0PPS = 0x35;
  3884   0052F4  0E35               	movlw	53
  3885   0052F6  6F11               	movwf	17,b	;volatile
  3886                           
  3887                           ;mcc_generated_files/system/src/pins.c: 105:     RB1PPS = 0x46;
  3888   0052F8  0E46               	movlw	70
  3889   0052FA  6F0A               	movwf	10,b	;volatile
  3890                           
  3891                           ;mcc_generated_files/system/src/pins.c: 106:     SPI2SCKPPS = 0xB;
  3892   0052FC  0E0B               	movlw	11
  3893   0052FE  6F6D               	movwf	109,b	;volatile
  3894                           
  3895                           ;mcc_generated_files/system/src/pins.c: 107:     RB3PPS = 0x34;
  3896   005300  0E34               	movlw	52
  3897   005302  6F0C               	movwf	12,b	;volatile
  3898                           
  3899                           ;mcc_generated_files/system/src/pins.c: 112:     IOCAP = 0x0;
  3900   005304  0E00               	movlw	0
  3901   005306  0104               	movlb	4	; () banked
  3902   005308  6F05               	movwf	5,b	;volatile
  3903                           
  3904                           ;mcc_generated_files/system/src/pins.c: 113:     IOCAN = 0x0;
  3905   00530A  0E00               	movlw	0
  3906   00530C  6F06               	movwf	6,b	;volatile
  3907                           
  3908                           ;mcc_generated_files/system/src/pins.c: 114:     IOCAF = 0x0;
  3909   00530E  0E00               	movlw	0
  3910   005310  6F07               	movwf	7,b	;volatile
  3911                           
  3912                           ;mcc_generated_files/system/src/pins.c: 115:     IOCBP = 0x0;
  3913   005312  0E00               	movlw	0
  3914   005314  6F0D               	movwf	13,b	;volatile
  3915                           
  3916                           ;mcc_generated_files/system/src/pins.c: 116:     IOCBN = 0x0;
  3917   005316  0E00               	movlw	0
  3918   005318  6F0E               	movwf	14,b	;volatile
  3919                           
  3920                           ;mcc_generated_files/system/src/pins.c: 117:     IOCBF = 0x0;
  3921   00531A  0E00               	movlw	0
  3922   00531C  6F0F               	movwf	15,b	;volatile
  3923                           
  3924                           ;mcc_generated_files/system/src/pins.c: 118:     IOCCP = 0x0;
  3925   00531E  0E00               	movlw	0
  3926   005320  6F15               	movwf	21,b	;volatile
  3927                           
  3928                           ;mcc_generated_files/system/src/pins.c: 119:     IOCCN = 0x0;
  3929   005322  0E00               	movlw	0
  3930   005324  6F16               	movwf	22,b	;volatile
  3931                           
  3932                           ;mcc_generated_files/system/src/pins.c: 120:     IOCCF = 0x0;
  3933   005326  0E00               	movlw	0
  3934   005328  6F17               	movwf	23,b	;volatile
  3935                           
  3936                           ;mcc_generated_files/system/src/pins.c: 121:     IOCEP = 0x0;
  3937   00532A  0E00               	movlw	0
  3938   00532C  6F25               	movwf	37,b	;volatile
  3939                           
  3940                           ;mcc_generated_files/system/src/pins.c: 122:     IOCEN = 0x0;
  3941   00532E  0E00               	movlw	0
  3942   005330  6F26               	movwf	38,b	;volatile
  3943                           
  3944                           ;mcc_generated_files/system/src/pins.c: 123:     IOCEF = 0x0;
  3945   005332  0E00               	movlw	0
  3946   005334  6F27               	movwf	39,b	;volatile
  3947   005336                     
  3948                           ; BSR set to: 4
  3949   005336  0012               	return		;funcret
  3950   005338                     __end_of_PIN_MANAGER_Initialize:
  3951                           	callstack 0
  3952                           
  3953 ;; *************** function _INTERRUPT_Initialize *****************
  3954 ;; Defined at:
  3955 ;;		line 42 in file "mcc_generated_files/system/src/interrupt.c"
  3956 ;; Parameters:    Size  Location     Type
  3957 ;;		None
  3958 ;; Auto vars:     Size  Location     Type
  3959 ;;		None
  3960 ;; Return value:  Size  Location     Type
  3961 ;;                  1    wreg      void 
  3962 ;; Registers used:
  3963 ;;		wreg, status,2, status,0, cstack
  3964 ;; Tracked objects:
  3965 ;;		On entry : 0/0
  3966 ;;		On exit  : 0/0
  3967 ;;		Unchanged: 0/0
  3968 ;; Data sizes:     COMRAM   BANK5   BANK6   BANK7   BANK8   BANK9  BANK10  BANK11  BANK12  BANK13  BANK14  BANK15  BANK1
      +6  BANK17  BANK18  BANK19  BANK20  BANK21  BANK22  BANK23  BANK24  BANK25  BANK26  BANK27  BANK28  BANK29  BANK30  BANK3
      +1  BANK32  BANK33  BANK34  BANK35  BANK36  BANK37  BANK38  BANK39  BANK40  BANK41  BANK42  BANK43  BANK44  BANK45  BANK4
      +6  BANK47  BANK48  BANK49  BANK50  BANK51  BANK52  BANK53  BANK54
  3969 ;;      Params:         0       0       0       0       0       0       0       0       0       0       0       0       
      +0       0       0       0       0       0       0       0       0       0       0       0       0       0       0       
      +0       0       0       0       0       0       0       0       0       0       0       0       0       0       0       
      +0       0       0       0       0       0       0       0       0
  3970 ;;      Locals:         0       0       0       0       0       0       0       0       0       0       0       0       
      +0       0       0       0       0       0       0       0       0       0       0       0       0       0       0       
      +0       0       0       0       0       0       0       0       0       0       0       0       0       0       0       
      +0       0       0       0       0       0       0       0       0
  3971 ;;      Temps:          0       0       0       0       0       0       0       0       0       0       0       0       
      +0       0       0       0       0       0       0       0       0       0       0       0       0       0       0       
      +0       0       0       0       0       0       0       0       0       0       0       0       0       0       0       
      +0       0       0       0       0       0       0       0       0
  3972 ;;      Totals:         0       0       0       0       0       0       0       0       0       0       0       0       
      +0       0       0       0       0       0       0       0       0       0       0       0       0       0       0       
      +0       0       0       0       0       0       0       0       0       0       0       0       0       0       0       
      +0       0       0       0       0       0       0       0       0
  3973 ;;Total ram usage:        0 bytes
  3974 ;; Hardware stack levels used: 1
  3975 ;; Hardware stack levels required when called: 4
  3976 ;; This function calls:
  3977 ;;		_INT0_SetInterruptHandler
  3978 ;;		_INT1_SetInterruptHandler
  3979 ;;		_INT2_SetInterruptHandler
  3980 ;; This function is called by:
  3981 ;;		_SYSTEM_Initialize
  3982 ;; This function uses a non-reentrant model
  3983 ;;
  3984                           
  3985                           	psect	text18
  3986   005786                     __ptext18:
  3987                           	callstack 0
  3988   005786                     _INTERRUPT_Initialize:
  3989                           	callstack 121
  3990   005786                     
  3991                           ;mcc_generated_files/system/src/interrupt.c: 45:     INTCON0bits.IPEN = 0;
  3992   005786  9AD6               	bcf	214,5,c	;volatile
  3993                           
  3994                           ;mcc_generated_files/system/src/interrupt.c: 49:     (PIR1bits.INT0IF = 0);
  3995   005788  90AF               	bcf	175,0,c	;volatile
  3996                           
  3997                           ;mcc_generated_files/system/src/interrupt.c: 50:     (INTCON0bits.INT0EDG = 1);
  3998   00578A  80D6               	bsf	214,0,c	;volatile
  3999   00578C                     
  4000                           ;mcc_generated_files/system/src/interrupt.c: 52:     INT0_SetInterruptHandler(INT0_Defau
      +                          ltInterruptHandler);
  4001   00578C  0E00               	movlw	0
  4002   00578E  6E03               	movwf	INT0_SetInterruptHandler@InterruptHandler^(0+1280),c
  4003   005790  0E00               	movlw	0
  4004   005792  6E04               	movwf	(INT0_SetInterruptHandler@InterruptHandler+1)^(0+1280),c
  4005   005794  0E00               	movlw	0
  4006   005796  6E05               	movwf	(INT0_SetInterruptHandler@InterruptHandler+2)^(0+1280),c
  4007   005798  EC7C  F02D         	call	_INT0_SetInterruptHandler	;wreg free
  4008   00579C                     
  4009                           ;mcc_generated_files/system/src/interrupt.c: 57:     (PIR6bits.INT1IF = 0);
  4010   00579C  90B4               	bcf	180,0,c	;volatile
  4011   00579E                     
  4012                           ;mcc_generated_files/system/src/interrupt.c: 58:     (INTCON0bits.INT1EDG = 1);
  4013   00579E  82D6               	bsf	214,1,c	;volatile
  4014                           
  4015                           ;mcc_generated_files/system/src/interrupt.c: 60:     INT1_SetInterruptHandler(INT1_Defau
      +                          ltInterruptHandler);
  4016   0057A0  0E00               	movlw	0
  4017   0057A2  6E03               	movwf	INT1_SetInterruptHandler@InterruptHandler^(0+1280),c
  4018   0057A4  0E00               	movlw	0
  4019   0057A6  6E04               	movwf	(INT1_SetInterruptHandler@InterruptHandler+1)^(0+1280),c
  4020   0057A8  0E00               	movlw	0
  4021   0057AA  6E05               	movwf	(INT1_SetInterruptHandler@InterruptHandler+2)^(0+1280),c
  4022   0057AC  EC75  F02D         	call	_INT1_SetInterruptHandler	;wreg free
  4023   0057B0                     
  4024                           ;mcc_generated_files/system/src/interrupt.c: 65:     (PIR10bits.INT2IF = 0);
  4025   0057B0  90B8               	bcf	184,0,c	;volatile
  4026   0057B2                     
  4027                           ;mcc_generated_files/system/src/interrupt.c: 66:     (INTCON0bits.INT2EDG = 1);
  4028   0057B2  84D6               	bsf	214,2,c	;volatile
  4029                           
  4030                           ;mcc_generated_files/system/src/interrupt.c: 68:     INT2_SetInterruptHandler(INT2_Defau
      +                          ltInterruptHandler);
  4031   0057B4  0E00               	movlw	0
  4032   0057B6  6E03               	movwf	INT2_SetInterruptHandler@InterruptHandler^(0+1280),c
  4033   0057B8  0E00               	movlw	0
  4034   0057BA  6E04               	movwf	(INT2_SetInterruptHandler@InterruptHandler+1)^(0+1280),c
  4035   0057BC  0E00               	movlw	0
  4036   0057BE  6E05               	movwf	(INT2_SetInterruptHandler@InterruptHandler+2)^(0+1280),c
  4037   0057C0  EC6E  F02D         	call	_INT2_SetInterruptHandler	;wreg free
  4038   0057C4  0012               	return		;funcret
  4039   0057C6                     __end_of_INTERRUPT_Initialize:
  4040                           	callstack 0
  4041                           
  4042 ;; *************** function _INT2_SetInterruptHandler *****************
  4043 ;; Defined at:
  4044 ;;		line 171 in file "mcc_generated_files/system/src/interrupt.c"
  4045 ;; Parameters:    Size  Location     Type
  4046 ;;  InterruptHan    3    2[COMRAM] PTR FTN()void 
  4047 ;;		 -> INT2_DefaultInterruptHandler(1), 
  4048 ;; Auto vars:     Size  Location     Type
  4049 ;;		None
  4050 ;; Return value:  Size  Location     Type
  4051 ;;                  1    wreg      void 
  4052 ;; Registers used:
  4053 ;;		wreg, status,2, status,0
  4054 ;; Tracked objects:
  4055 ;;		On entry : 0/0
  4056 ;;		On exit  : 0/0
  4057 ;;		Unchanged: 0/0
  4058 ;; Data sizes:     COMRAM   BANK5   BANK6   BANK7   BANK8   BANK9  BANK10  BANK11  BANK12  BANK13  BANK14  BANK15  BANK1
      +6  BANK17  BANK18  BANK19  BANK20  BANK21  BANK22  BANK23  BANK24  BANK25  BANK26  BANK27  BANK28  BANK29  BANK30  BANK3
      +1  BANK32  BANK33  BANK34  BANK35  BANK36  BANK37  BANK38  BANK39  BANK40  BANK41  BANK42  BANK43  BANK44  BANK45  BANK4
      +6  BANK47  BANK48  BANK49  BANK50  BANK51  BANK52  BANK53  BANK54
  4059 ;;      Params:         3       0       0       0       0       0       0       0       0       0       0       0       
      +0       0       0       0       0       0       0       0       0       0       0       0       0       0       0       
      +0       0       0       0       0       0       0       0       0       0       0       0       0       0       0       
      +0       0       0       0       0       0       0       0       0
  4060 ;;      Locals:         0       0       0       0       0       0       0       0       0       0       0       0       
      +0       0       0       0       0       0       0       0       0       0       0       0       0       0       0       
      +0       0       0       0       0       0       0       0       0       0       0       0       0       0       0       
      +0       0       0       0       0       0       0       0       0
  4061 ;;      Temps:          0       0       0       0       0       0       0       0       0       0       0       0       
      +0       0       0       0       0       0       0       0       0       0       0       0       0       0       0       
      +0       0       0       0       0       0       0       0       0       0       0       0       0       0       0       
      +0       0       0       0       0       0       0       0       0
  4062 ;;      Totals:         3       0       0       0       0       0       0       0       0       0       0       0       
      +0       0       0       0       0       0       0       0       0       0       0       0       0       0       0       
      +0       0       0       0       0       0       0       0       0       0       0       0       0       0       0       
      +0       0       0       0       0       0       0       0       0
  4063 ;;Total ram usage:        3 bytes
  4064 ;; Hardware stack levels used: 1
  4065 ;; Hardware stack levels required when called: 3
  4066 ;; This function calls:
  4067 ;;		Nothing
  4068 ;; This function is called by:
  4069 ;;		_INTERRUPT_Initialize
  4070 ;; This function uses a non-reentrant model
  4071 ;;
  4072                           
  4073                           	psect	text19
  4074   005ADC                     __ptext19:
  4075                           	callstack 0
  4076   005ADC                     _INT2_SetInterruptHandler:
  4077                           	callstack 121
  4078   005ADC                     
  4079                           ;mcc_generated_files/system/src/interrupt.c: 172:     INT2_InterruptHandler = InterruptH
      +                          andler;
  4080   005ADC  C503  F542         	movff	INT2_SetInterruptHandler@InterruptHandler,_INT2_InterruptHandler
  4081   005AE0  C504  F543         	movff	INT2_SetInterruptHandler@InterruptHandler+1,_INT2_InterruptHandler+1
  4082   005AE4  C505  F544         	movff	INT2_SetInterruptHandler@InterruptHandler+2,_INT2_InterruptHandler+2
  4083   005AE8  0012               	return		;funcret
  4084   005AEA                     __end_of_INT2_SetInterruptHandler:
  4085                           	callstack 0
  4086                           
  4087 ;; *************** function _INT1_SetInterruptHandler *****************
  4088 ;; Defined at:
  4089 ;;		line 145 in file "mcc_generated_files/system/src/interrupt.c"
  4090 ;; Parameters:    Size  Location     Type
  4091 ;;  InterruptHan    3    2[COMRAM] PTR FTN()void 
  4092 ;;		 -> INT1_DefaultInterruptHandler(1), 
  4093 ;; Auto vars:     Size  Location     Type
  4094 ;;		None
  4095 ;; Return value:  Size  Location     Type
  4096 ;;                  1    wreg      void 
  4097 ;; Registers used:
  4098 ;;		wreg, status,2, status,0
  4099 ;; Tracked objects:
  4100 ;;		On entry : 0/0
  4101 ;;		On exit  : 0/0
  4102 ;;		Unchanged: 0/0
  4103 ;; Data sizes:     COMRAM   BANK5   BANK6   BANK7   BANK8   BANK9  BANK10  BANK11  BANK12  BANK13  BANK14  BANK15  BANK1
      +6  BANK17  BANK18  BANK19  BANK20  BANK21  BANK22  BANK23  BANK24  BANK25  BANK26  BANK27  BANK28  BANK29  BANK30  BANK3
      +1  BANK32  BANK33  BANK34  BANK35  BANK36  BANK37  BANK38  BANK39  BANK40  BANK41  BANK42  BANK43  BANK44  BANK45  BANK4
      +6  BANK47  BANK48  BANK49  BANK50  BANK51  BANK52  BANK53  BANK54
  4104 ;;      Params:         3       0       0       0       0       0       0       0       0       0       0       0       
      +0       0       0       0       0       0       0       0       0       0       0       0       0       0       0       
      +0       0       0       0       0       0       0       0       0       0       0       0       0       0       0       
      +0       0       0       0       0       0       0       0       0
  4105 ;;      Locals:         0       0       0       0       0       0       0       0       0       0       0       0       
      +0       0       0       0       0       0       0       0       0       0       0       0       0       0       0       
      +0       0       0       0       0       0       0       0       0       0       0       0       0       0       0       
      +0       0       0       0       0       0       0       0       0
  4106 ;;      Temps:          0       0       0       0       0       0       0       0       0       0       0       0       
      +0       0       0       0       0       0       0       0       0       0       0       0       0       0       0       
      +0       0       0       0       0       0       0       0       0       0       0       0       0       0       0       
      +0       0       0       0       0       0       0       0       0
  4107 ;;      Totals:         3       0       0       0       0       0       0       0       0       0       0       0       
      +0       0       0       0       0       0       0       0       0       0       0       0       0       0       0       
      +0       0       0       0       0       0       0       0       0       0       0       0       0       0       0       
      +0       0       0       0       0       0       0       0       0
  4108 ;;Total ram usage:        3 bytes
  4109 ;; Hardware stack levels used: 1
  4110 ;; Hardware stack levels required when called: 3
  4111 ;; This function calls:
  4112 ;;		Nothing
  4113 ;; This function is called by:
  4114 ;;		_INTERRUPT_Initialize
  4115 ;; This function uses a non-reentrant model
  4116 ;;
  4117                           
  4118                           	psect	text20
  4119   005AEA                     __ptext20:
  4120                           	callstack 0
  4121   005AEA                     _INT1_SetInterruptHandler:
  4122                           	callstack 121
  4123   005AEA                     
  4124                           ;mcc_generated_files/system/src/interrupt.c: 146:     INT1_InterruptHandler = InterruptH
      +                          andler;
  4125   005AEA  C503  F545         	movff	INT1_SetInterruptHandler@InterruptHandler,_INT1_InterruptHandler
  4126   005AEE  C504  F546         	movff	INT1_SetInterruptHandler@InterruptHandler+1,_INT1_InterruptHandler+1
  4127   005AF2  C505  F547         	movff	INT1_SetInterruptHandler@InterruptHandler+2,_INT1_InterruptHandler+2
  4128   005AF6  0012               	return		;funcret
  4129   005AF8                     __end_of_INT1_SetInterruptHandler:
  4130                           	callstack 0
  4131                           
  4132 ;; *************** function _INT0_SetInterruptHandler *****************
  4133 ;; Defined at:
  4134 ;;		line 119 in file "mcc_generated_files/system/src/interrupt.c"
  4135 ;; Parameters:    Size  Location     Type
  4136 ;;  InterruptHan    3    2[COMRAM] PTR FTN()void 
  4137 ;;		 -> INT0_DefaultInterruptHandler(1), 
  4138 ;; Auto vars:     Size  Location     Type
  4139 ;;		None
  4140 ;; Return value:  Size  Location     Type
  4141 ;;                  1    wreg      void 
  4142 ;; Registers used:
  4143 ;;		wreg, status,2, status,0
  4144 ;; Tracked objects:
  4145 ;;		On entry : 0/0
  4146 ;;		On exit  : 0/0
  4147 ;;		Unchanged: 0/0
  4148 ;; Data sizes:     COMRAM   BANK5   BANK6   BANK7   BANK8   BANK9  BANK10  BANK11  BANK12  BANK13  BANK14  BANK15  BANK1
      +6  BANK17  BANK18  BANK19  BANK20  BANK21  BANK22  BANK23  BANK24  BANK25  BANK26  BANK27  BANK28  BANK29  BANK30  BANK3
      +1  BANK32  BANK33  BANK34  BANK35  BANK36  BANK37  BANK38  BANK39  BANK40  BANK41  BANK42  BANK43  BANK44  BANK45  BANK4
      +6  BANK47  BANK48  BANK49  BANK50  BANK51  BANK52  BANK53  BANK54
  4149 ;;      Params:         3       0       0       0       0       0       0       0       0       0       0       0       
      +0       0       0       0       0       0       0       0       0       0       0       0       0       0       0       
      +0       0       0       0       0       0       0       0       0       0       0       0       0       0       0       
      +0       0       0       0       0       0       0       0       0
  4150 ;;      Locals:         0       0       0       0       0       0       0       0       0       0       0       0       
      +0       0       0       0       0       0       0       0       0       0       0       0       0       0       0       
      +0       0       0       0       0       0       0       0       0       0       0       0       0       0       0       
      +0       0       0       0       0       0       0       0       0
  4151 ;;      Temps:          0       0       0       0       0       0       0       0       0       0       0       0       
      +0       0       0       0       0       0       0       0       0       0       0       0       0       0       0       
      +0       0       0       0       0       0       0       0       0       0       0       0       0       0       0       
      +0       0       0       0       0       0       0       0       0
  4152 ;;      Totals:         3       0       0       0       0       0       0       0       0       0       0       0       
      +0       0       0       0       0       0       0       0       0       0       0       0       0       0       0       
      +0       0       0       0       0       0       0       0       0       0       0       0       0       0       0       
      +0       0       0       0       0       0       0       0       0
  4153 ;;Total ram usage:        3 bytes
  4154 ;; Hardware stack levels used: 1
  4155 ;; Hardware stack levels required when called: 3
  4156 ;; This function calls:
  4157 ;;		Nothing
  4158 ;; This function is called by:
  4159 ;;		_INTERRUPT_Initialize
  4160 ;; This function uses a non-reentrant model
  4161 ;;
  4162                           
  4163                           	psect	text21
  4164   005AF8                     __ptext21:
  4165                           	callstack 0
  4166   005AF8                     _INT0_SetInterruptHandler:
  4167                           	callstack 121
  4168   005AF8                     
  4169                           ;mcc_generated_files/system/src/interrupt.c: 120:     INT0_InterruptHandler = InterruptH
      +                          andler;
  4170   005AF8  C503  F548         	movff	INT0_SetInterruptHandler@InterruptHandler,_INT0_InterruptHandler
  4171   005AFC  C504  F549         	movff	INT0_SetInterruptHandler@InterruptHandler+1,_INT0_InterruptHandler+1
  4172   005B00  C505  F54A         	movff	INT0_SetInterruptHandler@InterruptHandler+2,_INT0_InterruptHandler+2
  4173   005B04  0012               	return		;funcret
  4174   005B06                     __end_of_INT0_SetInterruptHandler:
  4175                           	callstack 0
  4176                           
  4177 ;; *************** function _CLOCK_Initialize *****************
  4178 ;; Defined at:
  4179 ;;		line 37 in file "mcc_generated_files/system/src/clock.c"
  4180 ;; Parameters:    Size  Location     Type
  4181 ;;		None
  4182 ;; Auto vars:     Size  Location     Type
  4183 ;;		None
  4184 ;; Return value:  Size  Location     Type
  4185 ;;                  1    wreg      void 
  4186 ;; Registers used:
  4187 ;;		wreg, status,2
  4188 ;; Tracked objects:
  4189 ;;		On entry : 0/0
  4190 ;;		On exit  : 0/0
  4191 ;;		Unchanged: 0/0
  4192 ;; Data sizes:     COMRAM   BANK5   BANK6   BANK7   BANK8   BANK9  BANK10  BANK11  BANK12  BANK13  BANK14  BANK15  BANK1
      +6  BANK17  BANK18  BANK19  BANK20  BANK21  BANK22  BANK23  BANK24  BANK25  BANK26  BANK27  BANK28  BANK29  BANK30  BANK3
      +1  BANK32  BANK33  BANK34  BANK35  BANK36  BANK37  BANK38  BANK39  BANK40  BANK41  BANK42  BANK43  BANK44  BANK45  BANK4
      +6  BANK47  BANK48  BANK49  BANK50  BANK51  BANK52  BANK53  BANK54
  4193 ;;      Params:         0       0       0       0       0       0       0       0       0       0       0       0       
      +0       0       0       0       0       0       0       0       0       0       0       0       0       0       0       
      +0       0       0       0       0       0       0       0       0       0       0       0       0       0       0       
      +0       0       0       0       0       0       0       0       0
  4194 ;;      Locals:         0       0       0       0       0       0       0       0       0       0       0       0       
      +0       0       0       0       0       0       0       0       0       0       0       0       0       0       0       
      +0       0       0       0       0       0       0       0       0       0       0       0       0       0       0       
      +0       0       0       0       0       0       0       0       0
  4195 ;;      Temps:          0       0       0       0       0       0       0       0       0       0       0       0       
      +0       0       0       0       0       0       0       0       0       0       0       0       0       0       0       
      +0       0       0       0       0       0       0       0       0       0       0       0       0       0       0       
      +0       0       0       0       0       0       0       0       0
  4196 ;;      Totals:         0       0       0       0       0       0       0       0       0       0       0       0       
      +0       0       0       0       0       0       0       0       0       0       0       0       0       0       0       
      +0       0       0       0       0       0       0       0       0       0       0       0       0       0       0       
      +0       0       0       0       0       0       0       0       0
  4197 ;;Total ram usage:        0 bytes
  4198 ;; Hardware stack levels used: 1
  4199 ;; Hardware stack levels required when called: 3
  4200 ;; This function calls:
  4201 ;;		Nothing
  4202 ;; This function is called by:
  4203 ;;		_SYSTEM_Initialize
  4204 ;; This function uses a non-reentrant model
  4205 ;;
  4206                           
  4207                           	psect	text22
  4208   00596A                     __ptext22:
  4209                           	callstack 0
  4210   00596A                     _CLOCK_Initialize:
  4211                           	callstack 122
  4212   00596A                     
  4213                           ;mcc_generated_files/system/src/clock.c: 41:     OSCCON1 = 0x60;
  4214   00596A  0E60               	movlw	96
  4215   00596C  0100               	movlb	0	; () banked
  4216   00596E  6FAD               	movwf	173,b	;volatile
  4217                           
  4218                           ;mcc_generated_files/system/src/clock.c: 43:     OSCCON3 = 0x0;
  4219   005970  0E00               	movlw	0
  4220   005972  6FAF               	movwf	175,b	;volatile
  4221                           
  4222                           ;mcc_generated_files/system/src/clock.c: 45:     OSCEN = 0x0;
  4223   005974  0E00               	movlw	0
  4224   005976  6FB3               	movwf	179,b	;volatile
  4225                           
  4226                           ;mcc_generated_files/system/src/clock.c: 47:     OSCFRQ = 0x8;
  4227   005978  0E08               	movlw	8
  4228   00597A  6FB1               	movwf	177,b	;volatile
  4229                           
  4230                           ;mcc_generated_files/system/src/clock.c: 49:     OSCTUNE = 0x0;
  4231   00597C  0E00               	movlw	0
  4232   00597E  6FB0               	movwf	176,b	;volatile
  4233                           
  4234                           ;mcc_generated_files/system/src/clock.c: 51:     ACTCON = 0x40;
  4235   005980  0E40               	movlw	64
  4236   005982  6FAC               	movwf	172,b	;volatile
  4237                           
  4238                           ;mcc_generated_files/system/src/clock.c: 53:     FSCMCON = 0x0;
  4239   005984  0E00               	movlw	0
  4240   005986  0104               	movlb	4	; () banked
  4241   005988  6F58               	movwf	88,b	;volatile
  4242   00598A                     
  4243                           ; BSR set to: 4
  4244   00598A  0012               	return		;funcret
  4245   00598C                     __end_of_CLOCK_Initialize:
  4246                           	callstack 0
  4247                           
  4248 ;; *************** function _CAN1_Initialize *****************
  4249 ;; Defined at:
  4250 ;;		line 528 in file "mcc_generated_files/can/src/can1.c"
  4251 ;; Parameters:    Size  Location     Type
  4252 ;;		None
  4253 ;; Auto vars:     Size  Location     Type
  4254 ;;		None
  4255 ;; Return value:  Size  Location     Type
  4256 ;;                  1    wreg      void 
  4257 ;; Registers used:
  4258 ;;		wreg, fsr2l, fsr2h, status,2, status,0, prodl, prodh, cstack
  4259 ;; Tracked objects:
  4260 ;;		On entry : 0/0
  4261 ;;		On exit  : 0/0
  4262 ;;		Unchanged: 0/0
  4263 ;; Data sizes:     COMRAM   BANK5   BANK6   BANK7   BANK8   BANK9  BANK10  BANK11  BANK12  BANK13  BANK14  BANK15  BANK1
      +6  BANK17  BANK18  BANK19  BANK20  BANK21  BANK22  BANK23  BANK24  BANK25  BANK26  BANK27  BANK28  BANK29  BANK30  BANK3
      +1  BANK32  BANK33  BANK34  BANK35  BANK36  BANK37  BANK38  BANK39  BANK40  BANK41  BANK42  BANK43  BANK44  BANK45  BANK4
      +6  BANK47  BANK48  BANK49  BANK50  BANK51  BANK52  BANK53  BANK54
  4264 ;;      Params:         0       0       0       0       0       0       0       0       0       0       0       0       
      +0       0       0       0       0       0       0       0       0       0       0       0       0       0       0       
      +0       0       0       0       0       0       0       0       0       0       0       0       0       0       0       
      +0       0       0       0       0       0       0       0       0
  4265 ;;      Locals:         0       0       0       0       0       0       0       0       0       0       0       0       
      +0       0       0       0       0       0       0       0       0       0       0       0       0       0       0       
      +0       0       0       0       0       0       0       0       0       0       0       0       0       0       0       
      +0       0       0       0       0       0       0       0       0
  4266 ;;      Temps:          0       0       0       0       0       0       0       0       0       0       0       0       
      +0       0       0       0       0       0       0       0       0       0       0       0       0       0       0       
      +0       0       0       0       0       0       0       0       0       0       0       0       0       0       0       
      +0       0       0       0       0       0       0       0       0
  4267 ;;      Totals:         0       0       0       0       0       0       0       0       0       0       0       0       
      +0       0       0       0       0       0       0       0       0       0       0       0       0       0       0       
      +0       0       0       0       0       0       0       0       0       0       0       0       0       0       0       
      +0       0       0       0       0       0       0       0       0
  4268 ;;Total ram usage:        0 bytes
  4269 ;; Hardware stack levels used: 1
  4270 ;; Hardware stack levels required when called: 5
  4271 ;; This function calls:
  4272 ;;		_CAN1_BitRateConfiguration
  4273 ;;		_CAN1_OperationModeSet
  4274 ;;		_CAN1_RX_FIFO_Configuration
  4275 ;;		_CAN1_RX_FIFO_FilterMaskConfiguration
  4276 ;;		_CAN1_RX_FIFO_ResetInfo
  4277 ;;		_CAN1_TX_FIFO_Configuration
  4278 ;; This function is called by:
  4279 ;;		_SYSTEM_Initialize
  4280 ;; This function uses a non-reentrant model
  4281 ;;
  4282                           
  4283                           	psect	text23
  4284   005690                     __ptext23:
  4285                           	callstack 0
  4286   005690                     _CAN1_Initialize:
  4287                           	callstack 120
  4288   005690                     
  4289                           ;mcc_generated_files/can/src/can1.c: 531:     C1CONHbits.ON = 1;
  4290   005690  0101               	movlb	1	; () banked
  4291   005692  8F01               	bsf	1,7,b	;volatile
  4292   005694                     
  4293                           ; BSR set to: 1
  4294                           ;mcc_generated_files/can/src/can1.c: 534:     C1CONT = 0x4;
  4295   005694  0E04               	movlw	4
  4296   005696  6F03               	movwf	3,b	;volatile
  4297                           
  4298                           ;mcc_generated_files/can/src/can1.c: 537:     C1CONU = 0x90;
  4299   005698  0E90               	movlw	144
  4300   00569A  6F02               	movwf	2,b	;volatile
  4301   00569C                     
  4302                           ; BSR set to: 1
  4303                           ;mcc_generated_files/can/src/can1.c: 540:     if (CAN_OP_MODE_REQUEST_SUCCESS == CAN1_Op
      +                          erationModeSet(CAN_CONFIGURATION_MODE))
  4304   00569C  0E04               	movlw	4
  4305   00569E  ECEE  F029         	call	_CAN1_OperationModeSet
  4306   0056A2  0900               	iorlw	0
  4307   0056A4  A4D8               	btfss	status,2,c
  4308   0056A6  EF57  F02B         	goto	u3271
  4309   0056AA  EF59  F02B         	goto	u3270
  4310   0056AE                     u3271:
  4311   0056AE  EF71  F02B         	goto	l231
  4312   0056B2                     u3270:
  4313   0056B2                     
  4314                           ;mcc_generated_files/can/src/can1.c: 541:     {;mcc_generated_files/can/src/can1.c: 543:
      +                                   C1FIFOBAL = (uint8_t)0x3800U;
  4315   0056B2  0E00               	movlw	0
  4316   0056B4  0101               	movlb	1	; () banked
  4317   0056B6  6F4C               	movwf	76,b	;volatile
  4318                           
  4319                           ;mcc_generated_files/can/src/can1.c: 544:         C1FIFOBAH = (uint8_t)(0x3800U >> 8);
  4320   0056B8  0E38               	movlw	56
  4321   0056BA  6F4D               	movwf	77,b	;volatile
  4322                           
  4323                           ;mcc_generated_files/can/src/can1.c: 547:         C1CONH = 0x97;
  4324   0056BC  0E97               	movlw	151
  4325   0056BE  6F01               	movwf	1,b	;volatile
  4326                           
  4327                           ;mcc_generated_files/can/src/can1.c: 550:         C1CONL = 0x40;
  4328   0056C0  0E40               	movlw	64
  4329   0056C2  6F00               	movwf	0,b	;volatile
  4330   0056C4                     
  4331                           ; BSR set to: 1
  4332                           ;mcc_generated_files/can/src/can1.c: 553:         C1CONUbits.STEF = 0;
  4333   0056C4  9702               	bcf	2,3,b	;volatile
  4334   0056C6                     
  4335                           ; BSR set to: 1
  4336                           ;mcc_generated_files/can/src/can1.c: 555:         C1CONUbits.TXQEN = 1;
  4337   0056C6  8902               	bsf	2,4,b	;volatile
  4338   0056C8                     
  4339                           ; BSR set to: 1
  4340                           ;mcc_generated_files/can/src/can1.c: 558:         CAN1_BitRateConfiguration();
  4341   0056C8  EC44  F02D         	call	_CAN1_BitRateConfiguration	;wreg free
  4342   0056CC                     
  4343                           ;mcc_generated_files/can/src/can1.c: 561:         CAN1_TX_FIFO_Configuration();
  4344   0056CC  EC30  F02D         	call	_CAN1_TX_FIFO_Configuration	;wreg free
  4345   0056D0                     
  4346                           ;mcc_generated_files/can/src/can1.c: 562:         CAN1_RX_FIFO_Configuration();
  4347   0056D0  EC3A  F02D         	call	_CAN1_RX_FIFO_Configuration	;wreg free
  4348   0056D4                     
  4349                           ;mcc_generated_files/can/src/can1.c: 565:         CAN1_RX_FIFO_FilterMaskConfiguration()
      +                          ;
  4350   0056D4  EC3B  F02C         	call	_CAN1_RX_FIFO_FilterMaskConfiguration	;wreg free
  4351   0056D8                     
  4352                           ;mcc_generated_files/can/src/can1.c: 568:         CAN1_RX_FIFO_ResetInfo();
  4353   0056D8  EC67  F02C         	call	_CAN1_RX_FIFO_ResetInfo	;wreg free
  4354   0056DC                     
  4355                           ;mcc_generated_files/can/src/can1.c: 571:         (void)CAN1_OperationModeSet(CAN_NORMAL
      +                          _2_0_MODE);
  4356   0056DC  0E06               	movlw	6
  4357   0056DE  ECEE  F029         	call	_CAN1_OperationModeSet
  4358   0056E2                     l231:
  4359   0056E2  0012               	return		;funcret
  4360   0056E4                     __end_of_CAN1_Initialize:
  4361                           	callstack 0
  4362                           
  4363 ;; *************** function _CAN1_TX_FIFO_Configuration *****************
  4364 ;; Defined at:
  4365 ;;		line 447 in file "mcc_generated_files/can/src/can1.c"
  4366 ;; Parameters:    Size  Location     Type
  4367 ;;		None
  4368 ;; Auto vars:     Size  Location     Type
  4369 ;;		None
  4370 ;; Return value:  Size  Location     Type
  4371 ;;                  1    wreg      void 
  4372 ;; Registers used:
  4373 ;;		wreg, status,2
  4374 ;; Tracked objects:
  4375 ;;		On entry : 0/0
  4376 ;;		On exit  : 0/0
  4377 ;;		Unchanged: 0/0
  4378 ;; Data sizes:     COMRAM   BANK5   BANK6   BANK7   BANK8   BANK9  BANK10  BANK11  BANK12  BANK13  BANK14  BANK15  BANK1
      +6  BANK17  BANK18  BANK19  BANK20  BANK21  BANK22  BANK23  BANK24  BANK25  BANK26  BANK27  BANK28  BANK29  BANK30  BANK3
      +1  BANK32  BANK33  BANK34  BANK35  BANK36  BANK37  BANK38  BANK39  BANK40  BANK41  BANK42  BANK43  BANK44  BANK45  BANK4
      +6  BANK47  BANK48  BANK49  BANK50  BANK51  BANK52  BANK53  BANK54
  4379 ;;      Params:         0       0       0       0       0       0       0       0       0       0       0       0       
      +0       0       0       0       0       0       0       0       0       0       0       0       0       0       0       
      +0       0       0       0       0       0       0       0       0       0       0       0       0       0       0       
      +0       0       0       0       0       0       0       0       0
  4380 ;;      Locals:         0       0       0       0       0       0       0       0       0       0       0       0       
      +0       0       0       0       0       0       0       0       0       0       0       0       0       0       0       
      +0       0       0       0       0       0       0       0       0       0       0       0       0       0       0       
      +0       0       0       0       0       0       0       0       0
  4381 ;;      Temps:          0       0       0       0       0       0       0       0       0       0       0       0       
      +0       0       0       0       0       0       0       0       0       0       0       0       0       0       0       
      +0       0       0       0       0       0       0       0       0       0       0       0       0       0       0       
      +0       0       0       0       0       0       0       0       0
  4382 ;;      Totals:         0       0       0       0       0       0       0       0       0       0       0       0       
      +0       0       0       0       0       0       0       0       0       0       0       0       0       0       0       
      +0       0       0       0       0       0       0       0       0       0       0       0       0       0       0       
      +0       0       0       0       0       0       0       0       0
  4383 ;;Total ram usage:        0 bytes
  4384 ;; Hardware stack levels used: 1
  4385 ;; Hardware stack levels required when called: 3
  4386 ;; This function calls:
  4387 ;;		Nothing
  4388 ;; This function is called by:
  4389 ;;		_CAN1_Initialize
  4390 ;; This function uses a non-reentrant model
  4391 ;;
  4392                           
  4393                           	psect	text24
  4394   005A60                     __ptext24:
  4395                           	callstack 0
  4396   005A60                     _CAN1_TX_FIFO_Configuration:
  4397                           	callstack 121
  4398   005A60                     
  4399                           ;mcc_generated_files/can/src/can1.c: 450:     C1TXQCONL = 0x80;
  4400   005A60  0E80               	movlw	128
  4401   005A62  0101               	movlb	1	; () banked
  4402   005A64  6F50               	movwf	80,b	;volatile
  4403                           
  4404                           ;mcc_generated_files/can/src/can1.c: 452:     C1TXQCONH = 0x4;
  4405   005A66  0E04               	movlw	4
  4406   005A68  6F51               	movwf	81,b	;volatile
  4407                           
  4408                           ;mcc_generated_files/can/src/can1.c: 454:     C1TXQCONU = 0x60;
  4409   005A6A  0E60               	movlw	96
  4410   005A6C  6F52               	movwf	82,b	;volatile
  4411                           
  4412                           ;mcc_generated_files/can/src/can1.c: 456:     C1TXQCONT = 0x7;
  4413   005A6E  0E07               	movlw	7
  4414   005A70  6F53               	movwf	83,b	;volatile
  4415   005A72                     
  4416                           ; BSR set to: 1
  4417   005A72  0012               	return		;funcret
  4418   005A74                     __end_of_CAN1_TX_FIFO_Configuration:
  4419                           	callstack 0
  4420                           
  4421 ;; *************** function _CAN1_RX_FIFO_ResetInfo *****************
  4422 ;; Defined at:
  4423 ;;		line 297 in file "mcc_generated_files/can/src/can1.c"
  4424 ;; Parameters:    Size  Location     Type
  4425 ;;		None
  4426 ;; Auto vars:     Size  Location     Type
  4427 ;;  count           1    2[COMRAM] unsigned char 
  4428 ;; Return value:  Size  Location     Type
  4429 ;;                  1    wreg      void 
  4430 ;; Registers used:
  4431 ;;		wreg, fsr2l, fsr2h, status,2, status,0, prodl, prodh
  4432 ;; Tracked objects:
  4433 ;;		On entry : 0/0
  4434 ;;		On exit  : 0/0
  4435 ;;		Unchanged: 0/0
  4436 ;; Data sizes:     COMRAM   BANK5   BANK6   BANK7   BANK8   BANK9  BANK10  BANK11  BANK12  BANK13  BANK14  BANK15  BANK1
      +6  BANK17  BANK18  BANK19  BANK20  BANK21  BANK22  BANK23  BANK24  BANK25  BANK26  BANK27  BANK28  BANK29  BANK30  BANK3
      +1  BANK32  BANK33  BANK34  BANK35  BANK36  BANK37  BANK38  BANK39  BANK40  BANK41  BANK42  BANK43  BANK44  BANK45  BANK4
      +6  BANK47  BANK48  BANK49  BANK50  BANK51  BANK52  BANK53  BANK54
  4437 ;;      Params:         0       0       0       0       0       0       0       0       0       0       0       0       
      +0       0       0       0       0       0       0       0       0       0       0       0       0       0       0       
      +0       0       0       0       0       0       0       0       0       0       0       0       0       0       0       
      +0       0       0       0       0       0       0       0       0
  4438 ;;      Locals:         1       0       0       0       0       0       0       0       0       0       0       0       
      +0       0       0       0       0       0       0       0       0       0       0       0       0       0       0       
      +0       0       0       0       0       0       0       0       0       0       0       0       0       0       0       
      +0       0       0       0       0       0       0       0       0
  4439 ;;      Temps:          0       0       0       0       0       0       0       0       0       0       0       0       
      +0       0       0       0       0       0       0       0       0       0       0       0       0       0       0       
      +0       0       0       0       0       0       0       0       0       0       0       0       0       0       0       
      +0       0       0       0       0       0       0       0       0
  4440 ;;      Totals:         1       0       0       0       0       0       0       0       0       0       0       0       
      +0       0       0       0       0       0       0       0       0       0       0       0       0       0       0       
      +0       0       0       0       0       0       0       0       0       0       0       0       0       0       0       
      +0       0       0       0       0       0       0       0       0
  4441 ;;Total ram usage:        1 bytes
  4442 ;; Hardware stack levels used: 1
  4443 ;; Hardware stack levels required when called: 3
  4444 ;; This function calls:
  4445 ;;		Nothing
  4446 ;; This function is called by:
  4447 ;;		_CAN1_Initialize
  4448 ;; This function uses a non-reentrant model
  4449 ;;
  4450                           
  4451                           	psect	text25
  4452   0058CE                     __ptext25:
  4453                           	callstack 0
  4454   0058CE                     _CAN1_RX_FIFO_ResetInfo:
  4455                           	callstack 121
  4456   0058CE                     
  4457                           ;mcc_generated_files/can/src/can1.c: 299:     uint8_t count;;mcc_generated_files/can/src
      +                          /can1.c: 301:     for(count = 0; count < (1U); count++)
  4458   0058CE  0E00               	movlw	0
  4459   0058D0  6E03               	movwf	CAN1_RX_FIFO_ResetInfo@count^(0+1280),c
  4460   0058D2                     l3366:
  4461                           
  4462                           ;mcc_generated_files/can/src/can1.c: 302:     {;mcc_generated_files/can/src/can1.c: 303:
      +                                   rxFIFOMsg[count].headCount = 0;
  4463   0058D2  5003               	movf	CAN1_RX_FIFO_ResetInfo@count^(0+1280),w,c
  4464   0058D4  0D02               	mullw	2
  4465   0058D6  0E5B               	movlw	low (_rxFIFOMsg+1)
  4466   0058D8  24F3               	addwf	243,w,c
  4467   0058DA  6ED9               	movwf	fsr2l,c
  4468   0058DC  0E05               	movlw	high (_rxFIFOMsg+1)
  4469   0058DE  20F4               	addwfc	prodh,w,c
  4470   0058E0  6EDA               	movwf	fsr2h,c
  4471   0058E2  6ADF               	clrf	indf2,c
  4472   0058E4                     
  4473                           ;mcc_generated_files/can/src/can1.c: 304:     }
  4474   0058E4  2A03               	incf	CAN1_RX_FIFO_ResetInfo@count^(0+1280),f,c
  4475   0058E6  5003               	movf	CAN1_RX_FIFO_ResetInfo@count^(0+1280),w,c
  4476   0058E8  B4D8               	btfsc	status,2,c
  4477   0058EA  EF79  F02C         	goto	u2911
  4478   0058EE  EF7B  F02C         	goto	u2910
  4479   0058F2                     u2911:
  4480   0058F2  EF69  F02C         	goto	l3366
  4481   0058F6                     u2910:
  4482   0058F6  0012               	return		;funcret
  4483   0058F8                     __end_of_CAN1_RX_FIFO_ResetInfo:
  4484                           	callstack 0
  4485                           
  4486 ;; *************** function _CAN1_RX_FIFO_FilterMaskConfiguration *****************
  4487 ;; Defined at:
  4488 ;;		line 483 in file "mcc_generated_files/can/src/can1.c"
  4489 ;; Parameters:    Size  Location     Type
  4490 ;;		None
  4491 ;; Auto vars:     Size  Location     Type
  4492 ;;		None
  4493 ;; Return value:  Size  Location     Type
  4494 ;;                  1    wreg      void 
  4495 ;; Registers used:
  4496 ;;		wreg, status,2
  4497 ;; Tracked objects:
  4498 ;;		On entry : 0/0
  4499 ;;		On exit  : 0/0
  4500 ;;		Unchanged: 0/0
  4501 ;; Data sizes:     COMRAM   BANK5   BANK6   BANK7   BANK8   BANK9  BANK10  BANK11  BANK12  BANK13  BANK14  BANK15  BANK1
      +6  BANK17  BANK18  BANK19  BANK20  BANK21  BANK22  BANK23  BANK24  BANK25  BANK26  BANK27  BANK28  BANK29  BANK30  BANK3
      +1  BANK32  BANK33  BANK34  BANK35  BANK36  BANK37  BANK38  BANK39  BANK40  BANK41  BANK42  BANK43  BANK44  BANK45  BANK4
      +6  BANK47  BANK48  BANK49  BANK50  BANK51  BANK52  BANK53  BANK54
  4502 ;;      Params:         0       0       0       0       0       0       0       0       0       0       0       0       
      +0       0       0       0       0       0       0       0       0       0       0       0       0       0       0       
      +0       0       0       0       0       0       0       0       0       0       0       0       0       0       0       
      +0       0       0       0       0       0       0       0       0
  4503 ;;      Locals:         0       0       0       0       0       0       0       0       0       0       0       0       
      +0       0       0       0       0       0       0       0       0       0       0       0       0       0       0       
      +0       0       0       0       0       0       0       0       0       0       0       0       0       0       0       
      +0       0       0       0       0       0       0       0       0
  4504 ;;      Temps:          0       0       0       0       0       0       0       0       0       0       0       0       
      +0       0       0       0       0       0       0       0       0       0       0       0       0       0       0       
      +0       0       0       0       0       0       0       0       0       0       0       0       0       0       0       
      +0       0       0       0       0       0       0       0       0
  4505 ;;      Totals:         0       0       0       0       0       0       0       0       0       0       0       0       
      +0       0       0       0       0       0       0       0       0       0       0       0       0       0       0       
      +0       0       0       0       0       0       0       0       0       0       0       0       0       0       0       
      +0       0       0       0       0       0       0       0       0
  4506 ;;Total ram usage:        0 bytes
  4507 ;; Hardware stack levels used: 1
  4508 ;; Hardware stack levels required when called: 3
  4509 ;; This function calls:
  4510 ;;		Nothing
  4511 ;; This function is called by:
  4512 ;;		_CAN1_Initialize
  4513 ;; This function uses a non-reentrant model
  4514 ;;
  4515                           
  4516                           	psect	text26
  4517   005876                     __ptext26:
  4518                           	callstack 0
  4519   005876                     _CAN1_RX_FIFO_FilterMaskConfiguration:
  4520                           	callstack 121
  4521   005876                     
  4522                           ;mcc_generated_files/can/src/can1.c: 488:     C1FLTCON0Lbits.F0BP = 1;
  4523   005876  0101               	movlb	1	; () banked
  4524   005878  5180               	movf	128,w,b	;volatile
  4525   00587A  0BE0               	andlw	-32
  4526   00587C  0901               	iorlw	1
  4527   00587E  6F80               	movwf	128,b	;volatile
  4528                           
  4529                           ;mcc_generated_files/can/src/can1.c: 490:     C1FLTOBJ0L = 0x91;
  4530   005880  0E91               	movlw	145
  4531   005882  6F8C               	movwf	140,b	;volatile
  4532                           
  4533                           ;mcc_generated_files/can/src/can1.c: 492:     C1FLTOBJ0H = 0x3;
  4534   005884  0E03               	movlw	3
  4535   005886  6F8D               	movwf	141,b	;volatile
  4536                           
  4537                           ;mcc_generated_files/can/src/can1.c: 494:     C1FLTOBJ0U = 0x0;
  4538   005888  0E00               	movlw	0
  4539   00588A  6F8E               	movwf	142,b	;volatile
  4540                           
  4541                           ;mcc_generated_files/can/src/can1.c: 496:     C1FLTOBJ0T = 0x0;
  4542   00588C  0E00               	movlw	0
  4543   00588E  6F8F               	movwf	143,b	;volatile
  4544   005890                     
  4545                           ; BSR set to: 1
  4546                           ;mcc_generated_files/can/src/can1.c: 498:     C1MASK0L = 0xFF;
  4547   005890  6990               	setf	144,b	;volatile
  4548                           
  4549                           ;mcc_generated_files/can/src/can1.c: 500:     C1MASK0H = 0x7;
  4550   005892  0E07               	movlw	7
  4551   005894  6F91               	movwf	145,b	;volatile
  4552                           
  4553                           ;mcc_generated_files/can/src/can1.c: 502:     C1MASK0U = 0x0;
  4554   005896  0E00               	movlw	0
  4555   005898  6F92               	movwf	146,b	;volatile
  4556                           
  4557                           ;mcc_generated_files/can/src/can1.c: 504:     C1MASK0T = 0x40;
  4558   00589A  0E40               	movlw	64
  4559   00589C  6F93               	movwf	147,b	;volatile
  4560   00589E                     
  4561                           ; BSR set to: 1
  4562                           ;mcc_generated_files/can/src/can1.c: 506:     C1FLTCON0Lbits.FLTEN0 = 1;
  4563   00589E  8F80               	bsf	128,7,b	;volatile
  4564   0058A0                     
  4565                           ; BSR set to: 1
  4566   0058A0  0012               	return		;funcret
  4567   0058A2                     __end_of_CAN1_RX_FIFO_FilterMaskConfiguration:
  4568                           	callstack 0
  4569                           
  4570 ;; *************** function _CAN1_RX_FIFO_Configuration *****************
  4571 ;; Defined at:
  4572 ;;		line 465 in file "mcc_generated_files/can/src/can1.c"
  4573 ;; Parameters:    Size  Location     Type
  4574 ;;		None
  4575 ;; Auto vars:     Size  Location     Type
  4576 ;;		None
  4577 ;; Return value:  Size  Location     Type
  4578 ;;                  1    wreg      void 
  4579 ;; Registers used:
  4580 ;;		wreg, status,2
  4581 ;; Tracked objects:
  4582 ;;		On entry : 0/0
  4583 ;;		On exit  : 0/0
  4584 ;;		Unchanged: 0/0
  4585 ;; Data sizes:     COMRAM   BANK5   BANK6   BANK7   BANK8   BANK9  BANK10  BANK11  BANK12  BANK13  BANK14  BANK15  BANK1
      +6  BANK17  BANK18  BANK19  BANK20  BANK21  BANK22  BANK23  BANK24  BANK25  BANK26  BANK27  BANK28  BANK29  BANK30  BANK3
      +1  BANK32  BANK33  BANK34  BANK35  BANK36  BANK37  BANK38  BANK39  BANK40  BANK41  BANK42  BANK43  BANK44  BANK45  BANK4
      +6  BANK47  BANK48  BANK49  BANK50  BANK51  BANK52  BANK53  BANK54
  4586 ;;      Params:         0       0       0       0       0       0       0       0       0       0       0       0       
      +0       0       0       0       0       0       0       0       0       0       0       0       0       0       0       
      +0       0       0       0       0       0       0       0       0       0       0       0       0       0       0       
      +0       0       0       0       0       0       0       0       0
  4587 ;;      Locals:         0       0       0       0       0       0       0       0       0       0       0       0       
      +0       0       0       0       0       0       0       0       0       0       0       0       0       0       0       
      +0       0       0       0       0       0       0       0       0       0       0       0       0       0       0       
      +0       0       0       0       0       0       0       0       0
  4588 ;;      Temps:          0       0       0       0       0       0       0       0       0       0       0       0       
      +0       0       0       0       0       0       0       0       0       0       0       0       0       0       0       
      +0       0       0       0       0       0       0       0       0       0       0       0       0       0       0       
      +0       0       0       0       0       0       0       0       0
  4589 ;;      Totals:         0       0       0       0       0       0       0       0       0       0       0       0       
      +0       0       0       0       0       0       0       0       0       0       0       0       0       0       0       
      +0       0       0       0       0       0       0       0       0       0       0       0       0       0       0       
      +0       0       0       0       0       0       0       0       0
  4590 ;;Total ram usage:        0 bytes
  4591 ;; Hardware stack levels used: 1
  4592 ;; Hardware stack levels required when called: 3
  4593 ;; This function calls:
  4594 ;;		Nothing
  4595 ;; This function is called by:
  4596 ;;		_CAN1_Initialize
  4597 ;; This function uses a non-reentrant model
  4598 ;;
  4599                           
  4600                           	psect	text27
  4601   005A74                     __ptext27:
  4602                           	callstack 0
  4603   005A74                     _CAN1_RX_FIFO_Configuration:
  4604                           	callstack 121
  4605   005A74                     
  4606                           ;mcc_generated_files/can/src/can1.c: 468:     C1FIFOCON1L = 0x0;
  4607   005A74  0E00               	movlw	0
  4608   005A76  0101               	movlb	1	; () banked
  4609   005A78  6F5C               	movwf	92,b	;volatile
  4610                           
  4611                           ;mcc_generated_files/can/src/can1.c: 470:     C1FIFOCON1H = 0x4;
  4612   005A7A  0E04               	movlw	4
  4613   005A7C  6F5D               	movwf	93,b	;volatile
  4614                           
  4615                           ;mcc_generated_files/can/src/can1.c: 472:     C1FIFOCON1U = 0x0;
  4616   005A7E  0E00               	movlw	0
  4617   005A80  6F5E               	movwf	94,b	;volatile
  4618                           
  4619                           ;mcc_generated_files/can/src/can1.c: 474:     C1FIFOCON1T = 0x7;
  4620   005A82  0E07               	movlw	7
  4621   005A84  6F5F               	movwf	95,b	;volatile
  4622   005A86                     
  4623                           ; BSR set to: 1
  4624   005A86  0012               	return		;funcret
  4625   005A88                     __end_of_CAN1_RX_FIFO_Configuration:
  4626                           	callstack 0
  4627                           
  4628 ;; *************** function _CAN1_OperationModeSet *****************
  4629 ;; Defined at:
  4630 ;;		line 622 in file "mcc_generated_files/can/src/can1.c"
  4631 ;; Parameters:    Size  Location     Type
  4632 ;;  requestMode     1    wreg     const enum E22661
  4633 ;; Auto vars:     Size  Location     Type
  4634 ;;  requestMode     1    3[COMRAM] const enum E22661
  4635 ;;  status          1    2[COMRAM] enum E22670
  4636 ;; Return value:  Size  Location     Type
  4637 ;;                  1    wreg      enum E22670
  4638 ;; Registers used:
  4639 ;;		wreg, status,2, status,0, cstack
  4640 ;; Tracked objects:
  4641 ;;		On entry : 0/0
  4642 ;;		On exit  : 0/0
  4643 ;;		Unchanged: 0/0
  4644 ;; Data sizes:     COMRAM   BANK5   BANK6   BANK7   BANK8   BANK9  BANK10  BANK11  BANK12  BANK13  BANK14  BANK15  BANK1
      +6  BANK17  BANK18  BANK19  BANK20  BANK21  BANK22  BANK23  BANK24  BANK25  BANK26  BANK27  BANK28  BANK29  BANK30  BANK3
      +1  BANK32  BANK33  BANK34  BANK35  BANK36  BANK37  BANK38  BANK39  BANK40  BANK41  BANK42  BANK43  BANK44  BANK45  BANK4
      +6  BANK47  BANK48  BANK49  BANK50  BANK51  BANK52  BANK53  BANK54
  4645 ;;      Params:         0       0       0       0       0       0       0       0       0       0       0       0       
      +0       0       0       0       0       0       0       0       0       0       0       0       0       0       0       
      +0       0       0       0       0       0       0       0       0       0       0       0       0       0       0       
      +0       0       0       0       0       0       0       0       0
  4646 ;;      Locals:         2       0       0       0       0       0       0       0       0       0       0       0       
      +0       0       0       0       0       0       0       0       0       0       0       0       0       0       0       
      +0       0       0       0       0       0       0       0       0       0       0       0       0       0       0       
      +0       0       0       0       0       0       0       0       0
  4647 ;;      Temps:          0       0       0       0       0       0       0       0       0       0       0       0       
      +0       0       0       0       0       0       0       0       0       0       0       0       0       0       0       
      +0       0       0       0       0       0       0       0       0       0       0       0       0       0       0       
      +0       0       0       0       0       0       0       0       0
  4648 ;;      Totals:         2       0       0       0       0       0       0       0       0       0       0       0       
      +0       0       0       0       0       0       0       0       0       0       0       0       0       0       0       
      +0       0       0       0       0       0       0       0       0       0       0       0       0       0       0       
      +0       0       0       0       0       0       0       0       0
  4649 ;;Total ram usage:        2 bytes
  4650 ;; Hardware stack levels used: 1
  4651 ;; Hardware stack levels required when called: 4
  4652 ;; This function calls:
  4653 ;;		_CAN1_OperationModeGet
  4654 ;; This function is called by:
  4655 ;;		_CAN1_Initialize
  4656 ;;		_main
  4657 ;;		_CAN1_Deinitialize
  4658 ;;		_CAN1_Sleep
  4659 ;; This function uses a non-reentrant model
  4660 ;;
  4661                           
  4662                           	psect	text28
  4663   0053DC                     __ptext28:
  4664                           	callstack 0
  4665   0053DC                     _CAN1_OperationModeSet:
  4666                           	callstack 120
  4667                           
  4668                           ; BSR set to: 1
  4669                           ;incstack = 0
  4670                           ;CAN1_OperationModeSet@requestMode stored from wreg
  4671   0053DC  6E04               	movwf	CAN1_OperationModeSet@requestMode^(0+1280),c
  4672   0053DE                     
  4673                           ;mcc_generated_files/can/src/can1.c: 622: enum CAN_OP_MODE_STATUS CAN1_OperationModeSet(
      +                          const enum CAN_OP_MODES requestMode);mcc_generated_files/can/src/can1.c: 623: {;mcc_gene
      +                          rated_files/can/src/can1.c: 624:     enum CAN_OP_MODE_STATUS status = CAN_OP_MODE_REQUES
      +                          T_SUCCESS;
  4674   0053DE  0E00               	movlw	0
  4675   0053E0  6E03               	movwf	CAN1_OperationModeSet@status^(0+1280),c
  4676   0053E2                     
  4677                           ;mcc_generated_files/can/src/can1.c: 626:     if ((CAN1_OperationModeGet() == CAN_CONFIG
      +                          URATION_MODE)
  4678   0053E2  EC83  F02D         	call	_CAN1_OperationModeGet	;wreg free
  4679   0053E6  0A04               	xorlw	4
  4680   0053E8  B4D8               	btfsc	status,2,c
  4681   0053EA  EFF9  F029         	goto	u3041
  4682   0053EE  EFFB  F029         	goto	u3040
  4683   0053F2                     u3041:
  4684   0053F2  EF0C  F02A         	goto	l3432
  4685   0053F6                     u3040:
  4686   0053F6  0404               	decf	CAN1_OperationModeSet@requestMode^(0+1280),w,c
  4687   0053F8  B4D8               	btfsc	status,2,c
  4688   0053FA  EF01  F02A         	goto	u3051
  4689   0053FE  EF03  F02A         	goto	u3050
  4690   005402                     u3051:
  4691   005402  EF0C  F02A         	goto	l3432
  4692   005406                     u3050:
  4693   005406  0E04               	movlw	4
  4694   005408  1804               	xorwf	CAN1_OperationModeSet@requestMode^(0+1280),w,c
  4695   00540A  A4D8               	btfss	status,2,c
  4696   00540C  EF0A  F02A         	goto	u3061
  4697   005410  EF0C  F02A         	goto	u3060
  4698   005414                     u3061:
  4699   005414  EF2C  F02A         	goto	l3438
  4700   005418                     u3060:
  4701   005418                     l3432:
  4702                           
  4703                           ;mcc_generated_files/can/src/can1.c: 629:     {;mcc_generated_files/can/src/can1.c: 630:
      +                                   C1CONTbits.REQOP = requestMode;
  4704   005418  0101               	movlb	1	; () banked
  4705   00541A  5103               	movf	3,w,b	;volatile
  4706   00541C  1804               	xorwf	CAN1_OperationModeSet@requestMode^(0+1280),w,c
  4707   00541E  0BF8               	andlw	-8
  4708   005420  1804               	xorwf	CAN1_OperationModeSet@requestMode^(0+1280),w,c
  4709   005422  6F03               	movwf	3,b	;volatile
  4710                           
  4711                           ;mcc_generated_files/can/src/can1.c: 632:         while (C1CONUbits.OPMOD != requestMode
      +                          )
  4712   005424  EF1F  F02A         	goto	l3436
  4713   005428                     l242:
  4714                           
  4715                           ; BSR set to: 1
  4716                           ;mcc_generated_files/can/src/can1.c: 633:         {;mcc_generated_files/can/src/can1.c: 
      +                          635:             if (C1INTHbits.SERRIF == 1)
  4717   005428  A91D               	btfss	29,4,b	;volatile
  4718   00542A  EF19  F02A         	goto	u3071
  4719   00542E  EF1B  F02A         	goto	u3070
  4720   005432                     u3071:
  4721   005432  EF1F  F02A         	goto	l3436
  4722   005436                     u3070:
  4723   005436                     
  4724                           ; BSR set to: 1
  4725                           ;mcc_generated_files/can/src/can1.c: 636:             {;mcc_generated_files/can/src/can1
      +                          .c: 637:                 status = CAN_OP_MODE_SYS_ERROR_OCCURED;
  4726   005436  0E02               	movlw	2
  4727   005438  6E03               	movwf	CAN1_OperationModeSet@status^(0+1280),c
  4728                           
  4729                           ;mcc_generated_files/can/src/can1.c: 638:                 break;
  4730   00543A  EF2E  F02A         	goto	l245
  4731   00543E                     l3436:
  4732                           
  4733                           ; BSR set to: 1
  4734                           ;mcc_generated_files/can/src/can1.c: 632:         while (C1CONUbits.OPMOD != requestMode
      +                          )
  4735   00543E  3902               	swapf	2,w,b	;volatile
  4736   005440  32E8               	rrcf	wreg,f,c
  4737   005442  0B07               	andlw	7
  4738   005444  1804               	xorwf	CAN1_OperationModeSet@requestMode^(0+1280),w,c
  4739   005446  A4D8               	btfss	status,2,c
  4740   005448  EF28  F02A         	goto	u3081
  4741   00544C  EF2A  F02A         	goto	u3080
  4742   005450                     u3081:
  4743   005450  EF14  F02A         	goto	l242
  4744   005454                     u3080:
  4745   005454  EF2E  F02A         	goto	l245
  4746   005458                     l3438:
  4747                           
  4748                           ;mcc_generated_files/can/src/can1.c: 643:     {;mcc_generated_files/can/src/can1.c: 644:
      +                                   status = CAN_OP_MODE_REQUEST_FAIL;
  4749   005458  0E01               	movlw	1
  4750   00545A  6E03               	movwf	CAN1_OperationModeSet@status^(0+1280),c
  4751   00545C                     l245:
  4752                           
  4753                           ;mcc_generated_files/can/src/can1.c: 647:     return status;
  4754   00545C  5003               	movf	CAN1_OperationModeSet@status^(0+1280),w,c
  4755   00545E  0012               	return		;funcret
  4756   005460                     __end_of_CAN1_OperationModeSet:
  4757                           	callstack 0
  4758                           
  4759 ;; *************** function _CAN1_OperationModeGet *****************
  4760 ;; Defined at:
  4761 ;;		line 650 in file "mcc_generated_files/can/src/can1.c"
  4762 ;; Parameters:    Size  Location     Type
  4763 ;;		None
  4764 ;; Auto vars:     Size  Location     Type
  4765 ;;		None
  4766 ;; Return value:  Size  Location     Type
  4767 ;;                  1    wreg      enum E22661
  4768 ;; Registers used:
  4769 ;;		wreg, status,2, status,0
  4770 ;; Tracked objects:
  4771 ;;		On entry : 0/0
  4772 ;;		On exit  : 0/0
  4773 ;;		Unchanged: 0/0
  4774 ;; Data sizes:     COMRAM   BANK5   BANK6   BANK7   BANK8   BANK9  BANK10  BANK11  BANK12  BANK13  BANK14  BANK15  BANK1
      +6  BANK17  BANK18  BANK19  BANK20  BANK21  BANK22  BANK23  BANK24  BANK25  BANK26  BANK27  BANK28  BANK29  BANK30  BANK3
      +1  BANK32  BANK33  BANK34  BANK35  BANK36  BANK37  BANK38  BANK39  BANK40  BANK41  BANK42  BANK43  BANK44  BANK45  BANK4
      +6  BANK47  BANK48  BANK49  BANK50  BANK51  BANK52  BANK53  BANK54
  4775 ;;      Params:         0       0       0       0       0       0       0       0       0       0       0       0       
      +0       0       0       0       0       0       0       0       0       0       0       0       0       0       0       
      +0       0       0       0       0       0       0       0       0       0       0       0       0       0       0       
      +0       0       0       0       0       0       0       0       0
  4776 ;;      Locals:         0       0       0       0       0       0       0       0       0       0       0       0       
      +0       0       0       0       0       0       0       0       0       0       0       0       0       0       0       
      +0       0       0       0       0       0       0       0       0       0       0       0       0       0       0       
      +0       0       0       0       0       0       0       0       0
  4777 ;;      Temps:          0       0       0       0       0       0       0       0       0       0       0       0       
      +0       0       0       0       0       0       0       0       0       0       0       0       0       0       0       
      +0       0       0       0       0       0       0       0       0       0       0       0       0       0       0       
      +0       0       0       0       0       0       0       0       0
  4778 ;;      Totals:         0       0       0       0       0       0       0       0       0       0       0       0       
      +0       0       0       0       0       0       0       0       0       0       0       0       0       0       0       
      +0       0       0       0       0       0       0       0       0       0       0       0       0       0       0       
      +0       0       0       0       0       0       0       0       0
  4779 ;;Total ram usage:        0 bytes
  4780 ;; Hardware stack levels used: 1
  4781 ;; Hardware stack levels required when called: 3
  4782 ;; This function calls:
  4783 ;;		Nothing
  4784 ;; This function is called by:
  4785 ;;		_CAN1_OperationModeSet
  4786 ;; This function uses a non-reentrant model
  4787 ;;
  4788                           
  4789                           	psect	text29
  4790   005B06                     __ptext29:
  4791                           	callstack 0
  4792   005B06                     _CAN1_OperationModeGet:
  4793                           	callstack 120
  4794   005B06                     
  4795                           ;mcc_generated_files/can/src/can1.c: 652:     return C1CONUbits.OPMOD;
  4796   005B06  0101               	movlb	1	; () banked
  4797   005B08  3902               	swapf	2,w,b	;volatile
  4798   005B0A  32E8               	rrcf	wreg,f,c
  4799   005B0C  0B07               	andlw	7
  4800   005B0E                     
  4801                           ; BSR set to: 1
  4802   005B0E  0012               	return		;funcret
  4803   005B10                     __end_of_CAN1_OperationModeGet:
  4804                           	callstack 0
  4805                           
  4806 ;; *************** function _CAN1_BitRateConfiguration *****************
  4807 ;; Defined at:
  4808 ;;		line 515 in file "mcc_generated_files/can/src/can1.c"
  4809 ;; Parameters:    Size  Location     Type
  4810 ;;		None
  4811 ;; Auto vars:     Size  Location     Type
  4812 ;;		None
  4813 ;; Return value:  Size  Location     Type
  4814 ;;                  1    wreg      void 
  4815 ;; Registers used:
  4816 ;;		wreg, status,2
  4817 ;; Tracked objects:
  4818 ;;		On entry : 0/0
  4819 ;;		On exit  : 0/0
  4820 ;;		Unchanged: 0/0
  4821 ;; Data sizes:     COMRAM   BANK5   BANK6   BANK7   BANK8   BANK9  BANK10  BANK11  BANK12  BANK13  BANK14  BANK15  BANK1
      +6  BANK17  BANK18  BANK19  BANK20  BANK21  BANK22  BANK23  BANK24  BANK25  BANK26  BANK27  BANK28  BANK29  BANK30  BANK3
      +1  BANK32  BANK33  BANK34  BANK35  BANK36  BANK37  BANK38  BANK39  BANK40  BANK41  BANK42  BANK43  BANK44  BANK45  BANK4
      +6  BANK47  BANK48  BANK49  BANK50  BANK51  BANK52  BANK53  BANK54
  4822 ;;      Params:         0       0       0       0       0       0       0       0       0       0       0       0       
      +0       0       0       0       0       0       0       0       0       0       0       0       0       0       0       
      +0       0       0       0       0       0       0       0       0       0       0       0       0       0       0       
      +0       0       0       0       0       0       0       0       0
  4823 ;;      Locals:         0       0       0       0       0       0       0       0       0       0       0       0       
      +0       0       0       0       0       0       0       0       0       0       0       0       0       0       0       
      +0       0       0       0       0       0       0       0       0       0       0       0       0       0       0       
      +0       0       0       0       0       0       0       0       0
  4824 ;;      Temps:          0       0       0       0       0       0       0       0       0       0       0       0       
      +0       0       0       0       0       0       0       0       0       0       0       0       0       0       0       
      +0       0       0       0       0       0       0       0       0       0       0       0       0       0       0       
      +0       0       0       0       0       0       0       0       0
  4825 ;;      Totals:         0       0       0       0       0       0       0       0       0       0       0       0       
      +0       0       0       0       0       0       0       0       0       0       0       0       0       0       0       
      +0       0       0       0       0       0       0       0       0       0       0       0       0       0       0       
      +0       0       0       0       0       0       0       0       0
  4826 ;;Total ram usage:        0 bytes
  4827 ;; Hardware stack levels used: 1
  4828 ;; Hardware stack levels required when called: 3
  4829 ;; This function calls:
  4830 ;;		Nothing
  4831 ;; This function is called by:
  4832 ;;		_CAN1_Initialize
  4833 ;; This function uses a non-reentrant model
  4834 ;;
  4835                           
  4836                           	psect	text30
  4837   005A88                     __ptext30:
  4838                           	callstack 0
  4839   005A88                     _CAN1_BitRateConfiguration:
  4840                           	callstack 121
  4841   005A88                     
  4842                           ;mcc_generated_files/can/src/can1.c: 518:     C1NBTCFGL = 0x25;
  4843   005A88  0E25               	movlw	37
  4844   005A8A  0101               	movlb	1	; () banked
  4845   005A8C  6F04               	movwf	4,b	;volatile
  4846                           
  4847                           ;mcc_generated_files/can/src/can1.c: 520:     C1NBTCFGH = 0x25;
  4848   005A8E  0E25               	movlw	37
  4849   005A90  6F05               	movwf	5,b	;volatile
  4850                           
  4851                           ;mcc_generated_files/can/src/can1.c: 522:     C1NBTCFGU = 0x58;
  4852   005A92  0E58               	movlw	88
  4853   005A94  6F06               	movwf	6,b	;volatile
  4854                           
  4855                           ;mcc_generated_files/can/src/can1.c: 524:     C1NBTCFGT = 0x0;
  4856   005A96  0E00               	movlw	0
  4857   005A98  6F07               	movwf	7,b	;volatile
  4858   005A9A                     
  4859                           ; BSR set to: 1
  4860   005A9A  0012               	return		;funcret
  4861   005A9C                     __end_of_CAN1_BitRateConfiguration:
  4862                           	callstack 0
  4863                           
  4864 ;; *************** function _IO_RTC_StartTime *****************
  4865 ;; Defined at:
  4866 ;;		line 61 in file "main.c"
  4867 ;; Parameters:    Size  Location     Type
  4868 ;;  ptr             2    2[COMRAM] const PTR unsigned long 
  4869 ;;		 -> TiOutTmr(4), Tmr(4), 
  4870 ;; Auto vars:     Size  Location     Type
  4871 ;;		None
  4872 ;; Return value:  Size  Location     Type
  4873 ;;                  1    wreg      void 
  4874 ;; Registers used:
  4875 ;;		wreg, fsr2l, fsr2h, status,2, status,0
  4876 ;; Tracked objects:
  4877 ;;		On entry : 0/0
  4878 ;;		On exit  : 0/0
  4879 ;;		Unchanged: 0/0
  4880 ;; Data sizes:     COMRAM   BANK5   BANK6   BANK7   BANK8   BANK9  BANK10  BANK11  BANK12  BANK13  BANK14  BANK15  BANK1
      +6  BANK17  BANK18  BANK19  BANK20  BANK21  BANK22  BANK23  BANK24  BANK25  BANK26  BANK27  BANK28  BANK29  BANK30  BANK3
      +1  BANK32  BANK33  BANK34  BANK35  BANK36  BANK37  BANK38  BANK39  BANK40  BANK41  BANK42  BANK43  BANK44  BANK45  BANK4
      +6  BANK47  BANK48  BANK49  BANK50  BANK51  BANK52  BANK53  BANK54
  4881 ;;      Params:         2       0       0       0       0       0       0       0       0       0       0       0       
      +0       0       0       0       0       0       0       0       0       0       0       0       0       0       0       
      +0       0       0       0       0       0       0       0       0       0       0       0       0       0       0       
      +0       0       0       0       0       0       0       0       0
  4882 ;;      Locals:         0       0       0       0       0       0       0       0       0       0       0       0       
      +0       0       0       0       0       0       0       0       0       0       0       0       0       0       0       
      +0       0       0       0       0       0       0       0       0       0       0       0       0       0       0       
      +0       0       0       0       0       0       0       0       0
  4883 ;;      Temps:          0       0       0       0       0       0       0       0       0       0       0       0       
      +0       0       0       0       0       0       0       0       0       0       0       0       0       0       0       
      +0       0       0       0       0       0       0       0       0       0       0       0       0       0       0       
      +0       0       0       0       0       0       0       0       0
  4884 ;;      Totals:         2       0       0       0       0       0       0       0       0       0       0       0       
      +0       0       0       0       0       0       0       0       0       0       0       0       0       0       0       
      +0       0       0       0       0       0       0       0       0       0       0       0       0       0       0       
      +0       0       0       0       0       0       0       0       0
  4885 ;;Total ram usage:        2 bytes
  4886 ;; Hardware stack levels used: 1
  4887 ;; Hardware stack levels required when called: 3
  4888 ;; This function calls:
  4889 ;;		Nothing
  4890 ;; This function is called by:
  4891 ;;		_main
  4892 ;; This function uses a non-reentrant model
  4893 ;;
  4894                           
  4895                           	psect	text31
  4896   0058A2                     __ptext31:
  4897                           	callstack 0
  4898   0058A2                     _IO_RTC_StartTime:
  4899                           	callstack 123
  4900   0058A2                     
  4901                           ;main.c: 62:     if (ptr != ((void*)0)) {
  4902   0058A2  5003               	movf	IO_RTC_StartTime@ptr^(0+1280),w,c
  4903   0058A4  1004               	iorwf	(IO_RTC_StartTime@ptr+1)^(0+1280),w,c
  4904   0058A6  B4D8               	btfsc	status,2,c
  4905   0058A8  EF58  F02C         	goto	u3461
  4906   0058AC  EF5A  F02C         	goto	u3460
  4907   0058B0                     u3461:
  4908   0058B0  EF66  F02C         	goto	l853
  4909   0058B4                     u3460:
  4910   0058B4                     
  4911                           ;main.c: 63:         *ptr = __INTERNAL_TIMER__;
  4912   0058B4  C503  F4D9         	movff	IO_RTC_StartTime@ptr,fsr2l
  4913   0058B8  C504  F4DA         	movff	IO_RTC_StartTime@ptr+1,fsr2h
  4914   0058BC  C560  F4DE         	movff	___INTERNAL_TIMER__,postinc2
  4915   0058C0  C561  F4DE         	movff	___INTERNAL_TIMER__+1,postinc2
  4916   0058C4  C562  F4DE         	movff	___INTERNAL_TIMER__+2,postinc2
  4917   0058C8  C563  F4DE         	movff	___INTERNAL_TIMER__+3,postinc2
  4918   0058CC                     l853:
  4919   0058CC  0012               	return		;funcret
  4920   0058CE                     __end_of_IO_RTC_StartTime:
  4921                           	callstack 0
  4922                           
  4923 ;; *************** function _IO_RTC_GetTimeUS *****************
  4924 ;; Defined at:
  4925 ;;		line 67 in file "main.c"
  4926 ;; Parameters:    Size  Location     Type
  4927 ;;  tmr             4    2[COMRAM] unsigned long 
  4928 ;; Auto vars:     Size  Location     Type
  4929 ;;		None
  4930 ;; Return value:  Size  Location     Type
  4931 ;;                  4    2[COMRAM] unsigned long 
  4932 ;; Registers used:
  4933 ;;		wreg, status,2, status,0
  4934 ;; Tracked objects:
  4935 ;;		On entry : 0/0
  4936 ;;		On exit  : 0/0
  4937 ;;		Unchanged: 0/0
  4938 ;; Data sizes:     COMRAM   BANK5   BANK6   BANK7   BANK8   BANK9  BANK10  BANK11  BANK12  BANK13  BANK14  BANK15  BANK1
      +6  BANK17  BANK18  BANK19  BANK20  BANK21  BANK22  BANK23  BANK24  BANK25  BANK26  BANK27  BANK28  BANK29  BANK30  BANK3
      +1  BANK32  BANK33  BANK34  BANK35  BANK36  BANK37  BANK38  BANK39  BANK40  BANK41  BANK42  BANK43  BANK44  BANK45  BANK4
      +6  BANK47  BANK48  BANK49  BANK50  BANK51  BANK52  BANK53  BANK54
  4939 ;;      Params:         4       0       0       0       0       0       0       0       0       0       0       0       
      +0       0       0       0       0       0       0       0       0       0       0       0       0       0       0       
      +0       0       0       0       0       0       0       0       0       0       0       0       0       0       0       
      +0       0       0       0       0       0       0       0       0
  4940 ;;      Locals:         0       0       0       0       0       0       0       0       0       0       0       0       
      +0       0       0       0       0       0       0       0       0       0       0       0       0       0       0       
      +0       0       0       0       0       0       0       0       0       0       0       0       0       0       0       
      +0       0       0       0       0       0       0       0       0
  4941 ;;      Temps:          0       0       0       0       0       0       0       0       0       0       0       0       
      +0       0       0       0       0       0       0       0       0       0       0       0       0       0       0       
      +0       0       0       0       0       0       0       0       0       0       0       0       0       0       0       
      +0       0       0       0       0       0       0       0       0
  4942 ;;      Totals:         4       0       0       0       0       0       0       0       0       0       0       0       
      +0       0       0       0       0       0       0       0       0       0       0       0       0       0       0       
      +0       0       0       0       0       0       0       0       0       0       0       0       0       0       0       
      +0       0       0       0       0       0       0       0       0
  4943 ;;Total ram usage:        4 bytes
  4944 ;; Hardware stack levels used: 1
  4945 ;; Hardware stack levels required when called: 3
  4946 ;; This function calls:
  4947 ;;		Nothing
  4948 ;; This function is called by:
  4949 ;;		_main
  4950 ;; This function uses a non-reentrant model
  4951 ;;
  4952                           
  4953                           	psect	text32
  4954   0059CA                     __ptext32:
  4955                           	callstack 0
  4956   0059CA                     _IO_RTC_GetTimeUS:
  4957                           	callstack 123
  4958   0059CA                     
  4959                           ;main.c: 68:     return (__INTERNAL_TIMER__ - tmr);
  4960   0059CA  5003               	movf	IO_RTC_GetTimeUS@tmr^(0+1280),w,c
  4961   0059CC  0105               	movlb	5	; () banked
  4962   0059CE  5D60               	subwf	___INTERNAL_TIMER__& (0+255),w,b
  4963   0059D0  6E03               	movwf	?_IO_RTC_GetTimeUS^(0+1280),c
  4964   0059D2  5004               	movf	(IO_RTC_GetTimeUS@tmr+1)^(0+1280),w,c
  4965   0059D4  5961               	subwfb	(___INTERNAL_TIMER__+1)& (0+255),w,b
  4966   0059D6  6E04               	movwf	(?_IO_RTC_GetTimeUS+1)^(0+1280),c
  4967   0059D8  5005               	movf	(IO_RTC_GetTimeUS@tmr+2)^(0+1280),w,c
  4968   0059DA  5962               	subwfb	(___INTERNAL_TIMER__+2)& (0+255),w,b
  4969   0059DC  6E05               	movwf	(?_IO_RTC_GetTimeUS+2)^(0+1280),c
  4970   0059DE  5006               	movf	(IO_RTC_GetTimeUS@tmr+3)^(0+1280),w,c
  4971   0059E0  5963               	subwfb	(___INTERNAL_TIMER__+3)& (0+255),w,b
  4972   0059E2  6E06               	movwf	(?_IO_RTC_GetTimeUS+3)^(0+1280),c
  4973   0059E4                     
  4974                           ; BSR set to: 5
  4975   0059E4  0012               	return		;funcret
  4976   0059E6                     __end_of_IO_RTC_GetTimeUS:
  4977                           	callstack 0
  4978                           
  4979 ;; *************** function _CAN1_Transmit *****************
  4980 ;; Defined at:
  4981 ;;		line 655 in file "mcc_generated_files/can/src/can1.c"
  4982 ;; Parameters:    Size  Location     Type
  4983 ;;  fifoChannel     1    wreg     const enum E22628
  4984 ;;  txCanMsg        2   27[COMRAM] PTR struct CAN_MSG_OBJ
  4985 ;;		 -> TxFrm(7), 
  4986 ;; Auto vars:     Size  Location     Type
  4987 ;;  fifoChannel     1   32[COMRAM] const enum E22628
  4988 ;;  txFifoObj       2   30[COMRAM] PTR unsigned char 
  4989 ;;		 -> RAM(14079), 
  4990 ;;  status          1   29[COMRAM] enum E22656
  4991 ;; Return value:  Size  Location     Type
  4992 ;;                  1    wreg      enum E22656
  4993 ;; Registers used:
  4994 ;;		wreg, fsr1l, fsr1h, fsr2l, fsr2h, status,2, status,0, tblptrl, tblptrh, tblptru, prodl, prodh, cstack
  4995 ;; Tracked objects:
  4996 ;;		On entry : 0/0
  4997 ;;		On exit  : 0/0
  4998 ;;		Unchanged: 0/0
  4999 ;; Data sizes:     COMRAM   BANK5   BANK6   BANK7   BANK8   BANK9  BANK10  BANK11  BANK12  BANK13  BANK14  BANK15  BANK1
      +6  BANK17  BANK18  BANK19  BANK20  BANK21  BANK22  BANK23  BANK24  BANK25  BANK26  BANK27  BANK28  BANK29  BANK30  BANK3
      +1  BANK32  BANK33  BANK34  BANK35  BANK36  BANK37  BANK38  BANK39  BANK40  BANK41  BANK42  BANK43  BANK44  BANK45  BANK4
      +6  BANK47  BANK48  BANK49  BANK50  BANK51  BANK52  BANK53  BANK54
  5000 ;;      Params:         2       0       0       0       0       0       0       0       0       0       0       0       
      +0       0       0       0       0       0       0       0       0       0       0       0       0       0       0       
      +0       0       0       0       0       0       0       0       0       0       0       0       0       0       0       
      +0       0       0       0       0       0       0       0       0
  5001 ;;      Locals:         4       0       0       0       0       0       0       0       0       0       0       0       
      +0       0       0       0       0       0       0       0       0       0       0       0       0       0       0       
      +0       0       0       0       0       0       0       0       0       0       0       0       0       0       0       
      +0       0       0       0       0       0       0       0       0
  5002 ;;      Temps:          0       0       0       0       0       0       0       0       0       0       0       0       
      +0       0       0       0       0       0       0       0       0       0       0       0       0       0       0       
      +0       0       0       0       0       0       0       0       0       0       0       0       0       0       0       
      +0       0       0       0       0       0       0       0       0
  5003 ;;      Totals:         6       0       0       0       0       0       0       0       0       0       0       0       
      +0       0       0       0       0       0       0       0       0       0       0       0       0       0       0       
      +0       0       0       0       0       0       0       0       0       0       0       0       0       0       0       
      +0       0       0       0       0       0       0       0       0
  5004 ;;Total ram usage:        6 bytes
  5005 ;; Hardware stack levels used: 1
  5006 ;; Hardware stack levels required when called: 6
  5007 ;; This function calls:
  5008 ;;		_CAN1_MessageWriteToFifo
  5009 ;;		_CAN1_ValidateTransmission
  5010 ;; This function is called by:
  5011 ;;		_main
  5012 ;; This function uses a non-reentrant model
  5013 ;;
  5014                           
  5015                           	psect	text33
  5016   0054DE                     __ptext33:
  5017                           	callstack 0
  5018   0054DE                     _CAN1_Transmit:
  5019                           	callstack 120
  5020                           
  5021                           ; BSR set to: 5
  5022                           ;incstack = 0
  5023                           ;CAN1_Transmit@fifoChannel stored from wreg
  5024   0054DE  6E21               	movwf	CAN1_Transmit@fifoChannel^(0+1280),c
  5025   0054E0                     
  5026                           ;mcc_generated_files/can/src/can1.c: 661:     status = CAN1_ValidateTransmission(fifoCha
      +                          nnel, txCanMsg);
  5027   0054E0  C51C  F507         	movff	CAN1_Transmit@txCanMsg,CAN1_ValidateTransmission@txCanMsg
  5028   0054E4  C51D  F508         	movff	CAN1_Transmit@txCanMsg+1,CAN1_ValidateTransmission@txCanMsg+1
  5029   0054E8  5021               	movf	CAN1_Transmit@fifoChannel^(0+1280),w,c
  5030   0054EA  EC15  F02B         	call	_CAN1_ValidateTransmission
  5031   0054EE  6E1E               	movwf	CAN1_Transmit@status^(0+1280),c
  5032   0054F0                     
  5033                           ;mcc_generated_files/can/src/can1.c: 663:     if (CAN_TX_MSG_REQUEST_SUCCESS == status)
  5034   0054F0  501E               	movf	CAN1_Transmit@status^(0+1280),w,c
  5035   0054F2  A4D8               	btfss	status,2,c
  5036   0054F4  EF7E  F02A         	goto	u3351
  5037   0054F8  EF80  F02A         	goto	u3350
  5038   0054FC                     u3351:
  5039   0054FC  EFA9  F02A         	goto	l254
  5040   005500                     u3350:
  5041   005500                     
  5042                           ;mcc_generated_files/can/src/can1.c: 664:     {;mcc_generated_files/can/src/can1.c: 665:
      +                                   txFifoObj = (uint8_t *) FIFO[fifoChannel].UA;
  5043   005500  5021               	movf	CAN1_Transmit@fifoChannel^(0+1280),w,c
  5044   005502  0D0C               	mullw	12
  5045   005504  0E58               	movlw	88
  5046   005506  24F3               	addwf	243,w,c
  5047   005508  6ED9               	movwf	fsr2l,c
  5048   00550A  0E01               	movlw	1
  5049   00550C  20F4               	addwfc	prodh,w,c
  5050   00550E  6EDA               	movwf	fsr2h,c
  5051   005510  C4DE F51F          	movff	postinc2,CAN1_Transmit@txFifoObj
  5052   005514  C4DD F520          	movff	postdec2,CAN1_Transmit@txFifoObj+1
  5053   005518                     
  5054                           ;mcc_generated_files/can/src/can1.c: 667:         if (txFifoObj != ((void*)0))
  5055   005518  501F               	movf	CAN1_Transmit@txFifoObj^(0+1280),w,c
  5056   00551A  1020               	iorwf	(CAN1_Transmit@txFifoObj+1)^(0+1280),w,c
  5057   00551C  B4D8               	btfsc	status,2,c
  5058   00551E  EF93  F02A         	goto	u3361
  5059   005522  EF95  F02A         	goto	u3360
  5060   005526                     u3361:
  5061   005526  EFA9  F02A         	goto	l254
  5062   00552A                     u3360:
  5063   00552A                     
  5064                           ;mcc_generated_files/can/src/can1.c: 668:         {;mcc_generated_files/can/src/can1.c: 
      +                          669:             CAN1_MessageWriteToFifo(txFifoObj, txCanMsg);
  5065   00552A  C51F  F50F         	movff	CAN1_Transmit@txFifoObj,CAN1_MessageWriteToFifo@txFifoObj
  5066   00552E  C520  F510         	movff	CAN1_Transmit@txFifoObj+1,CAN1_MessageWriteToFifo@txFifoObj+1
  5067   005532  C51C  F511         	movff	CAN1_Transmit@txCanMsg,CAN1_MessageWriteToFifo@txCanMsg
  5068   005536  C51D  F512         	movff	CAN1_Transmit@txCanMsg+1,CAN1_MessageWriteToFifo@txCanMsg+1
  5069   00553A  EC5A  F024         	call	_CAN1_MessageWriteToFifo	;wreg free
  5070   00553E                     
  5071                           ;mcc_generated_files/can/src/can1.c: 672:             FIFO[fifoChannel].CONH |= (0x2 | 0
      +                          x1);
  5072   00553E  5021               	movf	CAN1_Transmit@fifoChannel^(0+1280),w,c
  5073   005540  0D0C               	mullw	12
  5074   005542  0E51               	movlw	81
  5075   005544  24F3               	addwf	243,w,c
  5076   005546  6ED9               	movwf	fsr2l,c
  5077   005548  0E01               	movlw	1
  5078   00554A  20F4               	addwfc	prodh,w,c
  5079   00554C  6EDA               	movwf	fsr2h,c
  5080   00554E  0E03               	movlw	3
  5081   005550  12DF               	iorwf	indf2,f,c
  5082   005552                     l254:
  5083   005552  0012               	return		;funcret
  5084   005554                     __end_of_CAN1_Transmit:
  5085                           	callstack 0
  5086                           
  5087 ;; *************** function _CAN1_ValidateTransmission *****************
  5088 ;; Defined at:
  5089 ;;		line 266 in file "mcc_generated_files/can/src/can1.c"
  5090 ;; Parameters:    Size  Location     Type
  5091 ;;  channel         1    wreg     unsigned char 
  5092 ;;  txCanMsg        2    6[COMRAM] PTR struct CAN_MSG_OBJ
  5093 ;;		 -> TxFrm(7), 
  5094 ;; Auto vars:     Size  Location     Type
  5095 ;;  channel         1    9[COMRAM] unsigned char 
  5096 ;;  txMsgStatus     1   10[COMRAM] enum E22656
  5097 ;; Return value:  Size  Location     Type
  5098 ;;                  1    wreg      enum E22656
  5099 ;; Registers used:
  5100 ;;		wreg, fsr2l, fsr2h, status,2, status,0, prodl, prodh, cstack
  5101 ;; Tracked objects:
  5102 ;;		On entry : 0/0
  5103 ;;		On exit  : 0/0
  5104 ;;		Unchanged: 0/0
  5105 ;; Data sizes:     COMRAM   BANK5   BANK6   BANK7   BANK8   BANK9  BANK10  BANK11  BANK12  BANK13  BANK14  BANK15  BANK1
      +6  BANK17  BANK18  BANK19  BANK20  BANK21  BANK22  BANK23  BANK24  BANK25  BANK26  BANK27  BANK28  BANK29  BANK30  BANK3
      +1  BANK32  BANK33  BANK34  BANK35  BANK36  BANK37  BANK38  BANK39  BANK40  BANK41  BANK42  BANK43  BANK44  BANK45  BANK4
      +6  BANK47  BANK48  BANK49  BANK50  BANK51  BANK52  BANK53  BANK54
  5106 ;;      Params:         2       0       0       0       0       0       0       0       0       0       0       0       
      +0       0       0       0       0       0       0       0       0       0       0       0       0       0       0       
      +0       0       0       0       0       0       0       0       0       0       0       0       0       0       0       
      +0       0       0       0       0       0       0       0       0
  5107 ;;      Locals:         2       0       0       0       0       0       0       0       0       0       0       0       
      +0       0       0       0       0       0       0       0       0       0       0       0       0       0       0       
      +0       0       0       0       0       0       0       0       0       0       0       0       0       0       0       
      +0       0       0       0       0       0       0       0       0
  5108 ;;      Temps:          1       0       0       0       0       0       0       0       0       0       0       0       
      +0       0       0       0       0       0       0       0       0       0       0       0       0       0       0       
      +0       0       0       0       0       0       0       0       0       0       0       0       0       0       0       
      +0       0       0       0       0       0       0       0       0
  5109 ;;      Totals:         5       0       0       0       0       0       0       0       0       0       0       0       
      +0       0       0       0       0       0       0       0       0       0       0       0       0       0       0       
      +0       0       0       0       0       0       0       0       0       0       0       0       0       0       0       
      +0       0       0       0       0       0       0       0       0
  5110 ;;Total ram usage:        5 bytes
  5111 ;; Hardware stack levels used: 1
  5112 ;; Hardware stack levels required when called: 5
  5113 ;; This function calls:
  5114 ;;		_CAN1_TransmitFIFOStatusGet
  5115 ;; This function is called by:
  5116 ;;		_CAN1_Transmit
  5117 ;; This function uses a non-reentrant model
  5118 ;;
  5119                           
  5120                           	psect	text34
  5121   00562A                     __ptext34:
  5122                           	callstack 0
  5123   00562A                     _CAN1_ValidateTransmission:
  5124                           	callstack 120
  5125                           
  5126                           ;incstack = 0
  5127                           ;CAN1_ValidateTransmission@channel stored from wreg
  5128   00562A  6E0A               	movwf	CAN1_ValidateTransmission@channel^(0+1280),c
  5129   00562C                     
  5130                           ;mcc_generated_files/can/src/can1.c: 266: static enum CAN_TX_MSG_REQUEST_STATUS CAN1_Val
      +                          idateTransmission(uint8_t channel, struct CAN_MSG_OBJ *txCanMsg);mcc_generated_files/can
      +                          /src/can1.c: 267: {;mcc_generated_files/can/src/can1.c: 268:     enum CAN_TX_MSG_REQUEST
      +                          _STATUS txMsgStatus = CAN_TX_MSG_REQUEST_SUCCESS;
  5131   00562C  0E00               	movlw	0
  5132   00562E  6E0B               	movwf	CAN1_ValidateTransmission@txMsgStatus^(0+1280),c
  5133   005630                     
  5134                           ;mcc_generated_files/can/src/can1.c: 271:     if ((uint8_t)CAN_BRS_MODE == txCanMsg->fie
      +                          ld.brs)
  5135   005630  EE20 F004          	lfsr	2,4
  5136   005634  5007               	movf	CAN1_ValidateTransmission@txCanMsg^(0+1280),w,c
  5137   005636  26D9               	addwf	fsr2l,f,c
  5138   005638  5008               	movf	(CAN1_ValidateTransmission@txCanMsg+1)^(0+1280),w,c
  5139   00563A  22DA               	addwfc	fsr2h,f,c
  5140   00563C  AEDF               	btfss	indf2,7,c
  5141   00563E  EF23  F02B         	goto	u3201
  5142   005642  EF25  F02B         	goto	u3200
  5143   005646                     u3201:
  5144   005646  EF26  F02B         	goto	l3486
  5145   00564A                     u3200:
  5146   00564A                     
  5147                           ;mcc_generated_files/can/src/can1.c: 272:     {;mcc_generated_files/can/src/can1.c: 273:
      +                                   txMsgStatus |= CAN_TX_MSG_REQUEST_BRS_ERROR;
  5148   00564A  820B               	bsf	CAN1_ValidateTransmission@txMsgStatus^(0+1280),1,c
  5149   00564C                     l3486:
  5150                           
  5151                           ;mcc_generated_files/can/src/can1.c: 277:     if (txCanMsg->field.dlc > (uint8_t)DLC_8)
  5152   00564C  EE20 F004          	lfsr	2,4
  5153   005650  5007               	movf	CAN1_ValidateTransmission@txCanMsg^(0+1280),w,c
  5154   005652  26D9               	addwf	fsr2l,f,c
  5155   005654  5008               	movf	(CAN1_ValidateTransmission@txCanMsg+1)^(0+1280),w,c
  5156   005656  22DA               	addwfc	fsr2h,f,c
  5157   005658  30DF               	rrcf	223,w,c
  5158   00565A  32E8               	rrcf	wreg,f,c
  5159   00565C  0B0F               	andlw	15
  5160   00565E  6E09               	movwf	??_CAN1_ValidateTransmission^(0+1280),c
  5161   005660  0E08               	movlw	8
  5162   005662  6409               	cpfsgt	??_CAN1_ValidateTransmission^(0+1280),c
  5163   005664  EF36  F02B         	goto	u3211
  5164   005668  EF38  F02B         	goto	u3210
  5165   00566C                     u3211:
  5166   00566C  EF39  F02B         	goto	l3490
  5167   005670                     u3210:
  5168   005670                     
  5169                           ;mcc_generated_files/can/src/can1.c: 278:     {;mcc_generated_files/can/src/can1.c: 279:
      +                                   txMsgStatus |= CAN_TX_MSG_REQUEST_DLC_EXCEED_ERROR;
  5170   005670  800B               	bsf	CAN1_ValidateTransmission@txMsgStatus^(0+1280),0,c
  5171   005672                     l3490:
  5172                           
  5173                           ;mcc_generated_files/can/src/can1.c: 283:     if (CAN_TX_FIFO_FULL == CAN1_TransmitFIFOS
      +                          tatusGet(channel))
  5174   005672  500A               	movf	CAN1_ValidateTransmission@channel^(0+1280),w,c
  5175   005674  EC90  F02C         	call	_CAN1_TransmitFIFOStatusGet
  5176   005678  0900               	iorlw	0
  5177   00567A  A4D8               	btfss	status,2,c
  5178   00567C  EF42  F02B         	goto	u3221
  5179   005680  EF44  F02B         	goto	u3220
  5180   005684                     u3221:
  5181   005684  EF46  F02B         	goto	l3494
  5182   005688                     u3220:
  5183   005688                     
  5184                           ;mcc_generated_files/can/src/can1.c: 284:     {;mcc_generated_files/can/src/can1.c: 285:
      +                                   txMsgStatus |= CAN_TX_MSG_REQUEST_FIFO_FULL;
  5185   005688  0E03               	movlw	3
  5186   00568A  120B               	iorwf	CAN1_ValidateTransmission@txMsgStatus^(0+1280),f,c
  5187   00568C                     l3494:
  5188                           
  5189                           ;mcc_generated_files/can/src/can1.c: 288:     return txMsgStatus;
  5190   00568C  500B               	movf	CAN1_ValidateTransmission@txMsgStatus^(0+1280),w,c
  5191   00568E  0012               	return		;funcret
  5192   005690                     __end_of_CAN1_ValidateTransmission:
  5193                           	callstack 0
  5194                           
  5195 ;; *************** function _CAN1_TransmitFIFOStatusGet *****************
  5196 ;; Defined at:
  5197 ;;		line 679 in file "mcc_generated_files/can/src/can1.c"
  5198 ;; Parameters:    Size  Location     Type
  5199 ;;  fifoChannel     1    wreg     const enum E22628
  5200 ;; Auto vars:     Size  Location     Type
  5201 ;;  fifoChannel     1    5[COMRAM] const enum E22628
  5202 ;;  status          1    4[COMRAM] enum E22674
  5203 ;; Return value:  Size  Location     Type
  5204 ;;                  1    wreg      enum E22674
  5205 ;; Registers used:
  5206 ;;		wreg, fsr2l, fsr2h, status,2, status,0, prodl, prodh, cstack
  5207 ;; Tracked objects:
  5208 ;;		On entry : 0/0
  5209 ;;		On exit  : 0/0
  5210 ;;		Unchanged: 0/0
  5211 ;; Data sizes:     COMRAM   BANK5   BANK6   BANK7   BANK8   BANK9  BANK10  BANK11  BANK12  BANK13  BANK14  BANK15  BANK1
      +6  BANK17  BANK18  BANK19  BANK20  BANK21  BANK22  BANK23  BANK24  BANK25  BANK26  BANK27  BANK28  BANK29  BANK30  BANK3
      +1  BANK32  BANK33  BANK34  BANK35  BANK36  BANK37  BANK38  BANK39  BANK40  BANK41  BANK42  BANK43  BANK44  BANK45  BANK4
      +6  BANK47  BANK48  BANK49  BANK50  BANK51  BANK52  BANK53  BANK54
  5212 ;;      Params:         0       0       0       0       0       0       0       0       0       0       0       0       
      +0       0       0       0       0       0       0       0       0       0       0       0       0       0       0       
      +0       0       0       0       0       0       0       0       0       0       0       0       0       0       0       
      +0       0       0       0       0       0       0       0       0
  5213 ;;      Locals:         2       0       0       0       0       0       0       0       0       0       0       0       
      +0       0       0       0       0       0       0       0       0       0       0       0       0       0       0       
      +0       0       0       0       0       0       0       0       0       0       0       0       0       0       0       
      +0       0       0       0       0       0       0       0       0
  5214 ;;      Temps:          0       0       0       0       0       0       0       0       0       0       0       0       
      +0       0       0       0       0       0       0       0       0       0       0       0       0       0       0       
      +0       0       0       0       0       0       0       0       0       0       0       0       0       0       0       
      +0       0       0       0       0       0       0       0       0
  5215 ;;      Totals:         2       0       0       0       0       0       0       0       0       0       0       0       
      +0       0       0       0       0       0       0       0       0       0       0       0       0       0       0       
      +0       0       0       0       0       0       0       0       0       0       0       0       0       0       0       
      +0       0       0       0       0       0       0       0       0
  5216 ;;Total ram usage:        2 bytes
  5217 ;; Hardware stack levels used: 1
  5218 ;; Hardware stack levels required when called: 4
  5219 ;; This function calls:
  5220 ;;		_CAN1_GetTxFifoStatus
  5221 ;;		_CAN1_IsTxChannel
  5222 ;; This function is called by:
  5223 ;;		_CAN1_ValidateTransmission
  5224 ;; This function uses a non-reentrant model
  5225 ;;
  5226                           
  5227                           	psect	text35
  5228   005920                     __ptext35:
  5229                           	callstack 0
  5230   005920                     _CAN1_TransmitFIFOStatusGet:
  5231                           	callstack 120
  5232                           
  5233                           ;incstack = 0
  5234                           ;CAN1_TransmitFIFOStatusGet@fifoChannel stored from wreg
  5235   005920  6E06               	movwf	CAN1_TransmitFIFOStatusGet@fifoChannel^(0+1280),c
  5236   005922                     
  5237                           ;mcc_generated_files/can/src/can1.c: 679: enum CAN_TX_FIFO_STATUS CAN1_TransmitFIFOStatu
      +                          sGet(const enum CAN_TX_FIFO_CHANNELS fifoChannel);mcc_generated_files/can/src/can1.c: 68
      +                          0: {;mcc_generated_files/can/src/can1.c: 681:     enum CAN_TX_FIFO_STATUS status = CAN_T
      +                          X_FIFO_FULL;
  5238   005922  0E00               	movlw	0
  5239   005924  6E05               	movwf	CAN1_TransmitFIFOStatusGet@status^(0+1280),c
  5240   005926                     
  5241                           ;mcc_generated_files/can/src/can1.c: 683:     if (CAN1_IsTxChannel(fifoChannel))
  5242   005926  5006               	movf	CAN1_TransmitFIFOStatusGet@fifoChannel^(0+1280),w,c
  5243   005928  ECE3  F02B         	call	_CAN1_IsTxChannel
  5244   00592C  0900               	iorlw	0
  5245   00592E  B4D8               	btfsc	status,2,c
  5246   005930  EF9C  F02C         	goto	u2901
  5247   005934  EF9E  F02C         	goto	u2900
  5248   005938                     u2901:
  5249   005938  EFA2  F02C         	goto	l3358
  5250   00593C                     u2900:
  5251   00593C                     
  5252                           ;mcc_generated_files/can/src/can1.c: 684:     {;mcc_generated_files/can/src/can1.c: 685:
      +                                   status = CAN1_GetTxFifoStatus(fifoChannel);
  5253   00593C  5006               	movf	CAN1_TransmitFIFOStatusGet@fifoChannel^(0+1280),w,c
  5254   00593E  EC0D  F02D         	call	_CAN1_GetTxFifoStatus
  5255   005942  6E05               	movwf	CAN1_TransmitFIFOStatusGet@status^(0+1280),c
  5256   005944                     l3358:
  5257                           
  5258                           ;mcc_generated_files/can/src/can1.c: 688:     return status;
  5259   005944  5005               	movf	CAN1_TransmitFIFOStatusGet@status^(0+1280),w,c
  5260   005946  0012               	return		;funcret
  5261   005948                     __end_of_CAN1_TransmitFIFOStatusGet:
  5262                           	callstack 0
  5263                           
  5264 ;; *************** function _CAN1_IsTxChannel *****************
  5265 ;; Defined at:
  5266 ;;		line 183 in file "mcc_generated_files/can/src/can1.c"
  5267 ;; Parameters:    Size  Location     Type
  5268 ;;  channel         1    wreg     unsigned char 
  5269 ;; Auto vars:     Size  Location     Type
  5270 ;;  channel         1    3[COMRAM] unsigned char 
  5271 ;; Return value:  Size  Location     Type
  5272 ;;                  1    wreg      _Bool 
  5273 ;; Registers used:
  5274 ;;		wreg, fsr2l, fsr2h, status,2, status,0, prodl, prodh
  5275 ;; Tracked objects:
  5276 ;;		On entry : 0/0
  5277 ;;		On exit  : 0/0
  5278 ;;		Unchanged: 0/0
  5279 ;; Data sizes:     COMRAM   BANK5   BANK6   BANK7   BANK8   BANK9  BANK10  BANK11  BANK12  BANK13  BANK14  BANK15  BANK1
      +6  BANK17  BANK18  BANK19  BANK20  BANK21  BANK22  BANK23  BANK24  BANK25  BANK26  BANK27  BANK28  BANK29  BANK30  BANK3
      +1  BANK32  BANK33  BANK34  BANK35  BANK36  BANK37  BANK38  BANK39  BANK40  BANK41  BANK42  BANK43  BANK44  BANK45  BANK4
      +6  BANK47  BANK48  BANK49  BANK50  BANK51  BANK52  BANK53  BANK54
  5280 ;;      Params:         0       0       0       0       0       0       0       0       0       0       0       0       
      +0       0       0       0       0       0       0       0       0       0       0       0       0       0       0       
      +0       0       0       0       0       0       0       0       0       0       0       0       0       0       0       
      +0       0       0       0       0       0       0       0       0
  5281 ;;      Locals:         2       0       0       0       0       0       0       0       0       0       0       0       
      +0       0       0       0       0       0       0       0       0       0       0       0       0       0       0       
      +0       0       0       0       0       0       0       0       0       0       0       0       0       0       0       
      +0       0       0       0       0       0       0       0       0
  5282 ;;      Temps:          0       0       0       0       0       0       0       0       0       0       0       0       
      +0       0       0       0       0       0       0       0       0       0       0       0       0       0       0       
      +0       0       0       0       0       0       0       0       0       0       0       0       0       0       0       
      +0       0       0       0       0       0       0       0       0
  5283 ;;      Totals:         2       0       0       0       0       0       0       0       0       0       0       0       
      +0       0       0       0       0       0       0       0       0       0       0       0       0       0       0       
      +0       0       0       0       0       0       0       0       0       0       0       0       0       0       0       
      +0       0       0       0       0       0       0       0       0
  5284 ;;Total ram usage:        2 bytes
  5285 ;; Hardware stack levels used: 1
  5286 ;; Hardware stack levels required when called: 3
  5287 ;; This function calls:
  5288 ;;		Nothing
  5289 ;; This function is called by:
  5290 ;;		_CAN1_TransmitFIFOStatusGet
  5291 ;; This function uses a non-reentrant model
  5292 ;;
  5293                           
  5294                           	psect	text36
  5295   0057C6                     __ptext36:
  5296                           	callstack 0
  5297   0057C6                     _CAN1_IsTxChannel:
  5298                           	callstack 120
  5299                           
  5300                           ;incstack = 0
  5301                           ;CAN1_IsTxChannel@channel stored from wreg
  5302   0057C6  6E04               	movwf	CAN1_IsTxChannel@channel^(0+1280),c
  5303   0057C8                     
  5304                           ;mcc_generated_files/can/src/can1.c: 183: static _Bool CAN1_IsTxChannel(uint8_t channel)
      +                          ;mcc_generated_files/can/src/can1.c: 184: {;mcc_generated_files/can/src/can1.c: 185:    
      +                           return ((channel < 4U) && (FIFO[channel].CONL & 0x80));
  5305   0057C8  0E00               	movlw	0
  5306   0057CA  6E03               	movwf	_CAN1_IsTxChannel$797^(0+1280),c
  5307   0057CC  0E04               	movlw	4
  5308   0057CE  6004               	cpfslt	CAN1_IsTxChannel@channel^(0+1280),c
  5309   0057D0  EFEC  F02B         	goto	u2871
  5310   0057D4  EFEE  F02B         	goto	u2870
  5311   0057D8                     u2871:
  5312   0057D8  EF00  F02C         	goto	l168
  5313   0057DC                     u2870:
  5314   0057DC  5004               	movf	CAN1_IsTxChannel@channel^(0+1280),w,c
  5315   0057DE  0D0C               	mullw	12
  5316   0057E0  0E50               	movlw	80
  5317   0057E2  24F3               	addwf	243,w,c
  5318   0057E4  6ED9               	movwf	fsr2l,c
  5319   0057E6  0E01               	movlw	1
  5320   0057E8  20F4               	addwfc	prodh,w,c
  5321   0057EA  6EDA               	movwf	fsr2h,c
  5322   0057EC  0101               	movlb	1	; () banked
  5323   0057EE  AEDF               	btfss	indf2,7,c
  5324   0057F0  EFFC  F02B         	goto	u2881
  5325   0057F4  EFFE  F02B         	goto	u2880
  5326   0057F8                     u2881:
  5327   0057F8  EF00  F02C         	goto	l168
  5328   0057FC                     u2880:
  5329   0057FC                     
  5330                           ; BSR set to: 1
  5331   0057FC  0E01               	movlw	1
  5332   0057FE  6E03               	movwf	_CAN1_IsTxChannel$797^(0+1280),c
  5333   005800                     l168:
  5334   005800  5003               	movf	_CAN1_IsTxChannel$797^(0+1280),w,c
  5335   005802  0012               	return		;funcret
  5336   005804                     __end_of_CAN1_IsTxChannel:
  5337                           	callstack 0
  5338                           
  5339 ;; *************** function _CAN1_GetTxFifoStatus *****************
  5340 ;; Defined at:
  5341 ;;		line 194 in file "mcc_generated_files/can/src/can1.c"
  5342 ;; Parameters:    Size  Location     Type
  5343 ;;  validChannel    1    wreg     unsigned char 
  5344 ;; Auto vars:     Size  Location     Type
  5345 ;;  validChannel    1    2[COMRAM] unsigned char 
  5346 ;; Return value:  Size  Location     Type
  5347 ;;                  1    wreg      enum E22674
  5348 ;; Registers used:
  5349 ;;		wreg, fsr2l, fsr2h, status,2, status,0, prodl, prodh
  5350 ;; Tracked objects:
  5351 ;;		On entry : 0/0
  5352 ;;		On exit  : 0/0
  5353 ;;		Unchanged: 0/0
  5354 ;; Data sizes:     COMRAM   BANK5   BANK6   BANK7   BANK8   BANK9  BANK10  BANK11  BANK12  BANK13  BANK14  BANK15  BANK1
      +6  BANK17  BANK18  BANK19  BANK20  BANK21  BANK22  BANK23  BANK24  BANK25  BANK26  BANK27  BANK28  BANK29  BANK30  BANK3
      +1  BANK32  BANK33  BANK34  BANK35  BANK36  BANK37  BANK38  BANK39  BANK40  BANK41  BANK42  BANK43  BANK44  BANK45  BANK4
      +6  BANK47  BANK48  BANK49  BANK50  BANK51  BANK52  BANK53  BANK54
  5355 ;;      Params:         0       0       0       0       0       0       0       0       0       0       0       0       
      +0       0       0       0       0       0       0       0       0       0       0       0       0       0       0       
      +0       0       0       0       0       0       0       0       0       0       0       0       0       0       0       
      +0       0       0       0       0       0       0       0       0
  5356 ;;      Locals:         1       0       0       0       0       0       0       0       0       0       0       0       
      +0       0       0       0       0       0       0       0       0       0       0       0       0       0       0       
      +0       0       0       0       0       0       0       0       0       0       0       0       0       0       0       
      +0       0       0       0       0       0       0       0       0
  5357 ;;      Temps:          0       0       0       0       0       0       0       0       0       0       0       0       
      +0       0       0       0       0       0       0       0       0       0       0       0       0       0       0       
      +0       0       0       0       0       0       0       0       0       0       0       0       0       0       0       
      +0       0       0       0       0       0       0       0       0
  5358 ;;      Totals:         1       0       0       0       0       0       0       0       0       0       0       0       
      +0       0       0       0       0       0       0       0       0       0       0       0       0       0       0       
      +0       0       0       0       0       0       0       0       0       0       0       0       0       0       0       
      +0       0       0       0       0       0       0       0       0
  5359 ;;Total ram usage:        1 bytes
  5360 ;; Hardware stack levels used: 1
  5361 ;; Hardware stack levels required when called: 3
  5362 ;; This function calls:
  5363 ;;		Nothing
  5364 ;; This function is called by:
  5365 ;;		_CAN1_TransmitFIFOStatusGet
  5366 ;; This function uses a non-reentrant model
  5367 ;;
  5368                           
  5369                           	psect	text37
  5370   005A1A                     __ptext37:
  5371                           	callstack 0
  5372   005A1A                     _CAN1_GetTxFifoStatus:
  5373                           	callstack 120
  5374                           
  5375                           ;incstack = 0
  5376                           ;CAN1_GetTxFifoStatus@validChannel stored from wreg
  5377   005A1A  6E03               	movwf	CAN1_GetTxFifoStatus@validChannel^(0+1280),c
  5378   005A1C                     
  5379                           ;mcc_generated_files/can/src/can1.c: 194: static enum CAN_TX_FIFO_STATUS CAN1_GetTxFifoS
      +                          tatus(uint8_t validChannel);mcc_generated_files/can/src/can1.c: 195: {;mcc_generated_fil
      +                          es/can/src/can1.c: 196:     return (FIFO[validChannel].STAL & 0x1);
  5380   005A1C  5003               	movf	CAN1_GetTxFifoStatus@validChannel^(0+1280),w,c
  5381   005A1E  0D0C               	mullw	12
  5382   005A20  0E54               	movlw	84
  5383   005A22  24F3               	addwf	243,w,c
  5384   005A24  6ED9               	movwf	fsr2l,c
  5385   005A26  0E01               	movlw	1
  5386   005A28  20F4               	addwfc	prodh,w,c
  5387   005A2A  6EDA               	movwf	fsr2h,c
  5388   005A2C  50DF               	movf	indf2,w,c
  5389   005A2E  0B01               	andlw	1
  5390   005A30  0012               	return		;funcret
  5391   005A32                     __end_of_CAN1_GetTxFifoStatus:
  5392                           	callstack 0
  5393                           
  5394 ;; *************** function _CAN1_MessageWriteToFifo *****************
  5395 ;; Defined at:
  5396 ;;		line 206 in file "mcc_generated_files/can/src/can1.c"
  5397 ;; Parameters:    Size  Location     Type
  5398 ;;  txFifoObj       2   14[COMRAM] PTR unsigned char 
  5399 ;;		 -> RAM(14079), 
  5400 ;;  txCanMsg        2   16[COMRAM] PTR struct CAN_MSG_OBJ
  5401 ;;		 -> TxFrm(7), 
  5402 ;; Auto vars:     Size  Location     Type
  5403 ;;  msgId           4   23[COMRAM] unsigned long 
  5404 ;; Return value:  Size  Location     Type
  5405 ;;                  1    wreg      void 
  5406 ;; Registers used:
  5407 ;;		wreg, fsr1l, fsr1h, fsr2l, fsr2h, status,2, status,0, tblptrl, tblptrh, tblptru, cstack
  5408 ;; Tracked objects:
  5409 ;;		On entry : 0/0
  5410 ;;		On exit  : 0/0
  5411 ;;		Unchanged: 0/0
  5412 ;; Data sizes:     COMRAM   BANK5   BANK6   BANK7   BANK8   BANK9  BANK10  BANK11  BANK12  BANK13  BANK14  BANK15  BANK1
      +6  BANK17  BANK18  BANK19  BANK20  BANK21  BANK22  BANK23  BANK24  BANK25  BANK26  BANK27  BANK28  BANK29  BANK30  BANK3
      +1  BANK32  BANK33  BANK34  BANK35  BANK36  BANK37  BANK38  BANK39  BANK40  BANK41  BANK42  BANK43  BANK44  BANK45  BANK4
      +6  BANK47  BANK48  BANK49  BANK50  BANK51  BANK52  BANK53  BANK54
  5413 ;;      Params:         4       0       0       0       0       0       0       0       0       0       0       0       
      +0       0       0       0       0       0       0       0       0       0       0       0       0       0       0       
      +0       0       0       0       0       0       0       0       0       0       0       0       0       0       0       
      +0       0       0       0       0       0       0       0       0
  5414 ;;      Locals:         4       0       0       0       0       0       0       0       0       0       0       0       
      +0       0       0       0       0       0       0       0       0       0       0       0       0       0       0       
      +0       0       0       0       0       0       0       0       0       0       0       0       0       0       0       
      +0       0       0       0       0       0       0       0       0
  5415 ;;      Temps:          5       0       0       0       0       0       0       0       0       0       0       0       
      +0       0       0       0       0       0       0       0       0       0       0       0       0       0       0       
      +0       0       0       0       0       0       0       0       0       0       0       0       0       0       0       
      +0       0       0       0       0       0       0       0       0
  5416 ;;      Totals:        13       0       0       0       0       0       0       0       0       0       0       0       
      +0       0       0       0       0       0       0       0       0       0       0       0       0       0       0       
      +0       0       0       0       0       0       0       0       0       0       0       0       0       0       0       
      +0       0       0       0       0       0       0       0       0
  5417 ;;Total ram usage:       13 bytes
  5418 ;; Hardware stack levels used: 1
  5419 ;; Hardware stack levels required when called: 4
  5420 ;; This function calls:
  5421 ;;		_CAN1_DlcToDataBytesGet
  5422 ;;		_memcpy
  5423 ;; This function is called by:
  5424 ;;		_CAN1_Transmit
  5425 ;; This function uses a non-reentrant model
  5426 ;;
  5427                           
  5428                           	psect	text38
  5429   0048B4                     __ptext38:
  5430                           	callstack 0
  5431   0048B4                     _CAN1_MessageWriteToFifo:
  5432                           	callstack 121
  5433   0048B4                     
  5434                           ;mcc_generated_files/can/src/can1.c: 206: static void CAN1_MessageWriteToFifo(uint8_t *t
      +                          xFifoObj, struct CAN_MSG_OBJ *txCanMsg);mcc_generated_files/can/src/can1.c: 207: {;mcc_g
      +                          enerated_files/can/src/can1.c: 208:     uint32_t msgId = txCanMsg->msgId;
  5435   0048B4  C511  F4D9         	movff	CAN1_MessageWriteToFifo@txCanMsg,fsr2l
  5436   0048B8  C512  F4DA         	movff	CAN1_MessageWriteToFifo@txCanMsg+1,fsr2h
  5437   0048BC  C4DE F518          	movff	postinc2,CAN1_MessageWriteToFifo@msgId
  5438   0048C0  C4DE F519          	movff	postinc2,CAN1_MessageWriteToFifo@msgId+1
  5439   0048C4  C4DE F51A          	movff	postinc2,CAN1_MessageWriteToFifo@msgId+2
  5440   0048C8  C4DE F51B          	movff	postinc2,CAN1_MessageWriteToFifo@msgId+3
  5441   0048CC                     
  5442                           ;mcc_generated_files/can/src/can1.c: 210:     if ((uint8_t)CAN_FRAME_EXT == txCanMsg->fi
      +                          eld.idType)
  5443   0048CC  EE20 F004          	lfsr	2,4
  5444   0048D0  5011               	movf	CAN1_MessageWriteToFifo@txCanMsg^(0+1280),w,c
  5445   0048D2  26D9               	addwf	fsr2l,f,c
  5446   0048D4  5012               	movf	(CAN1_MessageWriteToFifo@txCanMsg+1)^(0+1280),w,c
  5447   0048D6  22DA               	addwfc	fsr2h,f,c
  5448   0048D8  A0DF               	btfss	indf2,0,c
  5449   0048DA  EF71  F024         	goto	u3091
  5450   0048DE  EF73  F024         	goto	u3090
  5451   0048E2                     u3091:
  5452   0048E2  EFAC  F024         	goto	l3466
  5453   0048E6                     u3090:
  5454   0048E6                     
  5455                           ;mcc_generated_files/can/src/can1.c: 211:     {;mcc_generated_files/can/src/can1.c: 214:
      +                                   txFifoObj[1] = (msgId << (0x3U)) & (0xF8U);
  5456   0048E6  EE20 F001          	lfsr	2,1
  5457   0048EA  500F               	movf	CAN1_MessageWriteToFifo@txFifoObj^(0+1280),w,c
  5458   0048EC  26D9               	addwf	fsr2l,f,c
  5459   0048EE  5010               	movf	(CAN1_MessageWriteToFifo@txFifoObj+1)^(0+1280),w,c
  5460   0048F0  22DA               	addwfc	fsr2h,f,c
  5461   0048F2  3818               	swapf	CAN1_MessageWriteToFifo@msgId^(0+1280),w,c
  5462   0048F4  42E8               	rrncf	wreg,f,c
  5463   0048F6  0BF8               	andlw	248
  5464   0048F8  0BF8               	andlw	248
  5465   0048FA  6EDF               	movwf	indf2,c
  5466   0048FC                     
  5467                           ;mcc_generated_files/can/src/can1.c: 215:         msgId >>= (0x5U);
  5468   0048FC  0E05               	movlw	5
  5469   0048FE  6E13               	movwf	??_CAN1_MessageWriteToFifo^(0+1280),c
  5470   004900                     u3105:
  5471   004900  90D8               	bcf	status,0,c
  5472   004902  321B               	rrcf	(CAN1_MessageWriteToFifo@msgId+3)^(0+1280),f,c
  5473   004904  321A               	rrcf	(CAN1_MessageWriteToFifo@msgId+2)^(0+1280),f,c
  5474   004906  3219               	rrcf	(CAN1_MessageWriteToFifo@msgId+1)^(0+1280),f,c
  5475   004908  3218               	rrcf	CAN1_MessageWriteToFifo@msgId^(0+1280),f,c
  5476   00490A  2E13               	decfsz	??_CAN1_MessageWriteToFifo^(0+1280),f,c
  5477   00490C  EF80  F024         	goto	u3105
  5478   004910                     
  5479                           ;mcc_generated_files/can/src/can1.c: 217:         txFifoObj[2] = msgId & (0xFFU);
  5480   004910  EE20 F002          	lfsr	2,2
  5481   004914  500F               	movf	CAN1_MessageWriteToFifo@txFifoObj^(0+1280),w,c
  5482   004916  26D9               	addwf	fsr2l,f,c
  5483   004918  5010               	movf	(CAN1_MessageWriteToFifo@txFifoObj+1)^(0+1280),w,c
  5484   00491A  22DA               	addwfc	fsr2h,f,c
  5485   00491C  C518  F4DF         	movff	CAN1_MessageWriteToFifo@msgId,indf2
  5486   004920                     
  5487                           ;mcc_generated_files/can/src/can1.c: 218:         msgId >>= (0x8U);
  5488   004920  C519  F518         	movff	CAN1_MessageWriteToFifo@msgId+1,CAN1_MessageWriteToFifo@msgId
  5489   004924  C51A  F519         	movff	CAN1_MessageWriteToFifo@msgId+2,CAN1_MessageWriteToFifo@msgId+1
  5490   004928  C51B  F51A         	movff	CAN1_MessageWriteToFifo@msgId+3,CAN1_MessageWriteToFifo@msgId+2
  5491   00492C  6A1B               	clrf	(CAN1_MessageWriteToFifo@msgId+3)^(0+1280),c
  5492   00492E                     
  5493                           ;mcc_generated_files/can/src/can1.c: 220:         txFifoObj[3] = msgId & (0x1FU);
  5494   00492E  EE20 F003          	lfsr	2,3
  5495   004932  500F               	movf	CAN1_MessageWriteToFifo@txFifoObj^(0+1280),w,c
  5496   004934  26D9               	addwf	fsr2l,f,c
  5497   004936  5010               	movf	(CAN1_MessageWriteToFifo@txFifoObj+1)^(0+1280),w,c
  5498   004938  22DA               	addwfc	fsr2h,f,c
  5499   00493A  5018               	movf	CAN1_MessageWriteToFifo@msgId^(0+1280),w,c
  5500   00493C  0B1F               	andlw	31
  5501   00493E  6EDF               	movwf	indf2,c
  5502   004940                     
  5503                           ;mcc_generated_files/can/src/can1.c: 221:         msgId >>= (0x5U);
  5504   004940  0E05               	movlw	5
  5505   004942  6E13               	movwf	??_CAN1_MessageWriteToFifo^(0+1280),c
  5506   004944                     u3115:
  5507   004944  90D8               	bcf	status,0,c
  5508   004946  321B               	rrcf	(CAN1_MessageWriteToFifo@msgId+3)^(0+1280),f,c
  5509   004948  321A               	rrcf	(CAN1_MessageWriteToFifo@msgId+2)^(0+1280),f,c
  5510   00494A  3219               	rrcf	(CAN1_MessageWriteToFifo@msgId+1)^(0+1280),f,c
  5511   00494C  3218               	rrcf	CAN1_MessageWriteToFifo@msgId^(0+1280),f,c
  5512   00494E  2E13               	decfsz	??_CAN1_MessageWriteToFifo^(0+1280),f,c
  5513   004950  EFA2  F024         	goto	u3115
  5514                           
  5515                           ;mcc_generated_files/can/src/can1.c: 222:     }
  5516   004954  EFC1  F024         	goto	l3468
  5517   004958                     l3466:
  5518                           
  5519                           ;mcc_generated_files/can/src/can1.c: 224:     {;mcc_generated_files/can/src/can1.c: 227:
      +                                   txFifoObj[1] = 0;
  5520   004958  EE20 F001          	lfsr	2,1
  5521   00495C  500F               	movf	CAN1_MessageWriteToFifo@txFifoObj^(0+1280),w,c
  5522   00495E  26D9               	addwf	fsr2l,f,c
  5523   004960  5010               	movf	(CAN1_MessageWriteToFifo@txFifoObj+1)^(0+1280),w,c
  5524   004962  22DA               	addwfc	fsr2h,f,c
  5525   004964  6ADF               	clrf	indf2,c
  5526                           
  5527                           ;mcc_generated_files/can/src/can1.c: 228:         txFifoObj[2] = 0;
  5528   004966  EE20 F002          	lfsr	2,2
  5529   00496A  500F               	movf	CAN1_MessageWriteToFifo@txFifoObj^(0+1280),w,c
  5530   00496C  26D9               	addwf	fsr2l,f,c
  5531   00496E  5010               	movf	(CAN1_MessageWriteToFifo@txFifoObj+1)^(0+1280),w,c
  5532   004970  22DA               	addwfc	fsr2h,f,c
  5533   004972  6ADF               	clrf	indf2,c
  5534                           
  5535                           ;mcc_generated_files/can/src/can1.c: 229:         txFifoObj[3] = 0;
  5536   004974  EE20 F003          	lfsr	2,3
  5537   004978  500F               	movf	CAN1_MessageWriteToFifo@txFifoObj^(0+1280),w,c
  5538   00497A  26D9               	addwf	fsr2l,f,c
  5539   00497C  5010               	movf	(CAN1_MessageWriteToFifo@txFifoObj+1)^(0+1280),w,c
  5540   00497E  22DA               	addwfc	fsr2h,f,c
  5541   004980  6ADF               	clrf	indf2,c
  5542   004982                     l3468:
  5543                           
  5544                           ;mcc_generated_files/can/src/can1.c: 232:     txFifoObj[0] = msgId & (0xFFU);
  5545   004982  C50F  F4D9         	movff	CAN1_MessageWriteToFifo@txFifoObj,fsr2l
  5546   004986  C510  F4DA         	movff	CAN1_MessageWriteToFifo@txFifoObj+1,fsr2h
  5547   00498A  C518  F4DF         	movff	CAN1_MessageWriteToFifo@msgId,indf2
  5548   00498E                     
  5549                           ;mcc_generated_files/can/src/can1.c: 233:     msgId >>= (0x8U);
  5550   00498E  C519  F518         	movff	CAN1_MessageWriteToFifo@msgId+1,CAN1_MessageWriteToFifo@msgId
  5551   004992  C51A  F519         	movff	CAN1_MessageWriteToFifo@msgId+2,CAN1_MessageWriteToFifo@msgId+1
  5552   004996  C51B  F51A         	movff	CAN1_MessageWriteToFifo@msgId+3,CAN1_MessageWriteToFifo@msgId+2
  5553   00499A  6A1B               	clrf	(CAN1_MessageWriteToFifo@msgId+3)^(0+1280),c
  5554   00499C                     
  5555                           ;mcc_generated_files/can/src/can1.c: 235:     txFifoObj[1] |= (msgId & (0x7U));
  5556   00499C  C518  F513         	movff	CAN1_MessageWriteToFifo@msgId,??_CAN1_MessageWriteToFifo
  5557   0049A0  0E07               	movlw	7
  5558   0049A2  1613               	andwf	??_CAN1_MessageWriteToFifo^(0+1280),f,c
  5559   0049A4  EE20 F001          	lfsr	2,1
  5560   0049A8  500F               	movf	CAN1_MessageWriteToFifo@txFifoObj^(0+1280),w,c
  5561   0049AA  26D9               	addwf	fsr2l,f,c
  5562   0049AC  5010               	movf	(CAN1_MessageWriteToFifo@txFifoObj+1)^(0+1280),w,c
  5563   0049AE  22DA               	addwfc	fsr2h,f,c
  5564   0049B0  5013               	movf	??_CAN1_MessageWriteToFifo^(0+1280),w,c
  5565   0049B2  12DF               	iorwf	indf2,f,c
  5566   0049B4                     
  5567                           ;mcc_generated_files/can/src/can1.c: 238:     txFifoObj[4] = (txCanMsg->field.dlc & (0xF
      +                          U)) |
  5568   0049B4  EE20 F004          	lfsr	2,4
  5569   0049B8  500F               	movf	CAN1_MessageWriteToFifo@txFifoObj^(0+1280),w,c
  5570   0049BA  26D9               	addwf	fsr2l,f,c
  5571   0049BC  5010               	movf	(CAN1_MessageWriteToFifo@txFifoObj+1)^(0+1280),w,c
  5572   0049BE  22DA               	addwfc	fsr2h,f,c
  5573   0049C0  EE10 F004          	lfsr	1,4
  5574   0049C4  5011               	movf	CAN1_MessageWriteToFifo@txCanMsg^(0+1280),w,c
  5575   0049C6  26E1               	addwf	fsr1l,f,c
  5576   0049C8  5012               	movf	(CAN1_MessageWriteToFifo@txCanMsg+1)^(0+1280),w,c
  5577   0049CA  22E2               	addwfc	fsr1h,f,c
  5578   0049CC  30E7               	rrcf	231,w,c
  5579   0049CE  32E8               	rrcf	wreg,f,c
  5580   0049D0  0B0F               	andlw	15
  5581   0049D2  6E13               	movwf	??_CAN1_MessageWriteToFifo^(0+1280),c
  5582   0049D4  EE10 F004          	lfsr	1,4
  5583   0049D8  5011               	movf	CAN1_MessageWriteToFifo@txCanMsg^(0+1280),w,c
  5584   0049DA  26E1               	addwf	fsr1l,f,c
  5585   0049DC  5012               	movf	(CAN1_MessageWriteToFifo@txCanMsg+1)^(0+1280),w,c
  5586   0049DE  22E2               	addwfc	fsr1h,f,c
  5587   0049E0  BCE7               	btfsc	indf1,6,c
  5588   0049E2  EFF5  F024         	goto	u3121
  5589   0049E6  EFF9  F024         	goto	u3120
  5590   0049EA                     u3121:
  5591   0049EA  0E80               	movlw	128
  5592   0049EC  6E14               	movwf	(??_CAN1_MessageWriteToFifo+1)^(0+1280),c
  5593   0049EE  EFFA  F024         	goto	u3135
  5594   0049F2                     u3120:
  5595   0049F2  6A14               	clrf	(??_CAN1_MessageWriteToFifo+1)^(0+1280),c
  5596   0049F4                     u3135:
  5597   0049F4  0E80               	movlw	128
  5598   0049F6  1614               	andwf	(??_CAN1_MessageWriteToFifo+1)^(0+1280),f,c
  5599   0049F8  EE10 F004          	lfsr	1,4
  5600   0049FC  5011               	movf	CAN1_MessageWriteToFifo@txCanMsg^(0+1280),w,c
  5601   0049FE  26E1               	addwf	fsr1l,f,c
  5602   004A00  5012               	movf	(CAN1_MessageWriteToFifo@txCanMsg+1)^(0+1280),w,c
  5603   004A02  22E2               	addwfc	fsr1h,f,c
  5604   004A04  BEE7               	btfsc	indf1,7,c
  5605   004A06  EF07  F025         	goto	u3141
  5606   004A0A  EF0B  F025         	goto	u3140
  5607   004A0E                     u3141:
  5608   004A0E  0E40               	movlw	64
  5609   004A10  6E15               	movwf	(??_CAN1_MessageWriteToFifo+2)^(0+1280),c
  5610   004A12  EF0C  F025         	goto	u3155
  5611   004A16                     u3140:
  5612   004A16  6A15               	clrf	(??_CAN1_MessageWriteToFifo+2)^(0+1280),c
  5613   004A18                     u3155:
  5614   004A18  0E40               	movlw	64
  5615   004A1A  1615               	andwf	(??_CAN1_MessageWriteToFifo+2)^(0+1280),f,c
  5616   004A1C  EE10 F004          	lfsr	1,4
  5617   004A20  5011               	movf	CAN1_MessageWriteToFifo@txCanMsg^(0+1280),w,c
  5618   004A22  26E1               	addwf	fsr1l,f,c
  5619   004A24  5012               	movf	(CAN1_MessageWriteToFifo@txCanMsg+1)^(0+1280),w,c
  5620   004A26  22E2               	addwfc	fsr1h,f,c
  5621   004A28  B2E7               	btfsc	indf1,1,c
  5622   004A2A  EF19  F025         	goto	u3161
  5623   004A2E  EF1D  F025         	goto	u3160
  5624   004A32                     u3161:
  5625   004A32  0E20               	movlw	32
  5626   004A34  6E16               	movwf	(??_CAN1_MessageWriteToFifo+3)^(0+1280),c
  5627   004A36  EF1E  F025         	goto	u3175
  5628   004A3A                     u3160:
  5629   004A3A  6A16               	clrf	(??_CAN1_MessageWriteToFifo+3)^(0+1280),c
  5630   004A3C                     u3175:
  5631   004A3C  0E20               	movlw	32
  5632   004A3E  1616               	andwf	(??_CAN1_MessageWriteToFifo+3)^(0+1280),f,c
  5633   004A40  EE10 F004          	lfsr	1,4
  5634   004A44  5011               	movf	CAN1_MessageWriteToFifo@txCanMsg^(0+1280),w,c
  5635   004A46  26E1               	addwf	fsr1l,f,c
  5636   004A48  5012               	movf	(CAN1_MessageWriteToFifo@txCanMsg+1)^(0+1280),w,c
  5637   004A4A  22E2               	addwfc	fsr1h,f,c
  5638   004A4C  B0E7               	btfsc	indf1,0,c
  5639   004A4E  EF2B  F025         	goto	u3181
  5640   004A52  EF2F  F025         	goto	u3180
  5641   004A56                     u3181:
  5642   004A56  6A17               	clrf	(??_CAN1_MessageWriteToFifo+4)^(0+1280),c
  5643   004A58  2A17               	incf	(??_CAN1_MessageWriteToFifo+4)^(0+1280),f,c
  5644   004A5A  EF30  F025         	goto	u3188
  5645   004A5E                     u3180:
  5646   004A5E  6A17               	clrf	(??_CAN1_MessageWriteToFifo+4)^(0+1280),c
  5647   004A60                     u3188:
  5648   004A60  3817               	swapf	(??_CAN1_MessageWriteToFifo+4)^(0+1280),w,c
  5649   004A62  0BF0               	andlw	240
  5650   004A64  0B10               	andlw	16
  5651   004A66  1016               	iorwf	(??_CAN1_MessageWriteToFifo+3)^(0+1280),w,c
  5652   004A68  1015               	iorwf	(??_CAN1_MessageWriteToFifo+2)^(0+1280),w,c
  5653   004A6A  1014               	iorwf	(??_CAN1_MessageWriteToFifo+1)^(0+1280),w,c
  5654   004A6C  1013               	iorwf	??_CAN1_MessageWriteToFifo^(0+1280),w,c
  5655   004A6E  6EDF               	movwf	indf2,c
  5656   004A70                     
  5657                           ;mcc_generated_files/can/src/can1.c: 244:     if ((uint8_t)CAN_FRAME_DATA == txCanMsg->f
      +                          ield.frameType)
  5658   004A70  EE20 F004          	lfsr	2,4
  5659   004A74  5011               	movf	CAN1_MessageWriteToFifo@txCanMsg^(0+1280),w,c
  5660   004A76  26D9               	addwf	fsr2l,f,c
  5661   004A78  5012               	movf	(CAN1_MessageWriteToFifo@txCanMsg+1)^(0+1280),w,c
  5662   004A7A  22DA               	addwfc	fsr2h,f,c
  5663   004A7C  B2DF               	btfsc	indf2,1,c
  5664   004A7E  EF43  F025         	goto	u3191
  5665   004A82  EF45  F025         	goto	u3190
  5666   004A86                     u3191:
  5667   004A86  EF66  F025         	goto	l179
  5668   004A8A                     u3190:
  5669   004A8A                     
  5670                           ;mcc_generated_files/can/src/can1.c: 245:     {;mcc_generated_files/can/src/can1.c: 249:
      +                                   (void)memcpy(&txFifoObj[8], txCanMsg->data, CAN1_DlcToDataBytesGet(txCanMsg->fi
      +                          eld.dlc));
  5671   004A8A  0E08               	movlw	8
  5672   004A8C  240F               	addwf	CAN1_MessageWriteToFifo@txFifoObj^(0+1280),w,c
  5673   004A8E  6E04               	movwf	memcpy@d1^(0+1280),c
  5674   004A90  0E00               	movlw	0
  5675   004A92  2010               	addwfc	(CAN1_MessageWriteToFifo@txFifoObj+1)^(0+1280),w,c
  5676   004A94  6E05               	movwf	(memcpy@d1+1)^(0+1280),c
  5677   004A96  EE20 F005          	lfsr	2,5
  5678   004A9A  5011               	movf	CAN1_MessageWriteToFifo@txCanMsg^(0+1280),w,c
  5679   004A9C  26D9               	addwf	fsr2l,f,c
  5680   004A9E  5012               	movf	(CAN1_MessageWriteToFifo@txCanMsg+1)^(0+1280),w,c
  5681   004AA0  22DA               	addwfc	fsr2h,f,c
  5682   004AA2  C4DE F506          	movff	postinc2,memcpy@s1
  5683   004AA6  C4DD F507          	movff	postdec2,memcpy@s1+1
  5684   004AAA  EE20 F004          	lfsr	2,4
  5685   004AAE  5011               	movf	CAN1_MessageWriteToFifo@txCanMsg^(0+1280),w,c
  5686   004AB0  26D9               	addwf	fsr2l,f,c
  5687   004AB2  5012               	movf	(CAN1_MessageWriteToFifo@txCanMsg+1)^(0+1280),w,c
  5688   004AB4  22DA               	addwfc	fsr2h,f,c
  5689   004AB6  30DF               	rrcf	223,w,c
  5690   004AB8  32E8               	rrcf	wreg,f,c
  5691   004ABA  0B0F               	andlw	15
  5692   004ABC  EC00  F02D         	call	_CAN1_DlcToDataBytesGet
  5693   004AC0  6E13               	movwf	??_CAN1_MessageWriteToFifo^(0+1280),c
  5694   004AC2  5013               	movf	??_CAN1_MessageWriteToFifo^(0+1280),w,c
  5695   004AC4  6E08               	movwf	memcpy@n^(0+1280),c
  5696   004AC6  6A09               	clrf	(memcpy@n+1)^(0+1280),c
  5697   004AC8  EC9B  F02B         	call	_memcpy	;wreg free
  5698   004ACC                     l179:
  5699   004ACC  0012               	return		;funcret
  5700   004ACE                     __end_of_CAN1_MessageWriteToFifo:
  5701                           	callstack 0
  5702                           
  5703 ;; *************** function _memcpy *****************
  5704 ;; Defined at:
  5705 ;;		line 4 in file "C:\Program Files\Microchip\xc8\v2.41\pic\sources\c99\common\memcpy.c"
  5706 ;; Parameters:    Size  Location     Type
  5707 ;;  d1              2    3[COMRAM] PTR void 
  5708 ;;		 -> RAM(14079), 
  5709 ;;  s1              2    5[COMRAM] PTR const void 
  5710 ;;		 -> RxData(8), TxData(8), rxMsgData(8), 
  5711 ;;  n               2    7[COMRAM] unsigned int 
  5712 ;; Auto vars:     Size  Location     Type
  5713 ;;  s               2   12[COMRAM] PTR const unsigned char 
  5714 ;;		 -> RxData(8), TxData(8), rxMsgData(8), 
  5715 ;;  d               2   10[COMRAM] PTR unsigned char 
  5716 ;;		 -> RAM(14079), 
  5717 ;;  tmp             1    9[COMRAM] unsigned char 
  5718 ;; Return value:  Size  Location     Type
  5719 ;;                  2    3[COMRAM] PTR void 
  5720 ;; Registers used:
  5721 ;;		wreg, fsr2l, fsr2h, status,2, status,0
  5722 ;; Tracked objects:
  5723 ;;		On entry : 0/0
  5724 ;;		On exit  : 0/0
  5725 ;;		Unchanged: 0/0
  5726 ;; Data sizes:     COMRAM   BANK5   BANK6   BANK7   BANK8   BANK9  BANK10  BANK11  BANK12  BANK13  BANK14  BANK15  BANK1
      +6  BANK17  BANK18  BANK19  BANK20  BANK21  BANK22  BANK23  BANK24  BANK25  BANK26  BANK27  BANK28  BANK29  BANK30  BANK3
      +1  BANK32  BANK33  BANK34  BANK35  BANK36  BANK37  BANK38  BANK39  BANK40  BANK41  BANK42  BANK43  BANK44  BANK45  BANK4
      +6  BANK47  BANK48  BANK49  BANK50  BANK51  BANK52  BANK53  BANK54
  5727 ;;      Params:         6       0       0       0       0       0       0       0       0       0       0       0       
      +0       0       0       0       0       0       0       0       0       0       0       0       0       0       0       
      +0       0       0       0       0       0       0       0       0       0       0       0       0       0       0       
      +0       0       0       0       0       0       0       0       0
  5728 ;;      Locals:         5       0       0       0       0       0       0       0       0       0       0       0       
      +0       0       0       0       0       0       0       0       0       0       0       0       0       0       0       
      +0       0       0       0       0       0       0       0       0       0       0       0       0       0       0       
      +0       0       0       0       0       0       0       0       0
  5729 ;;      Temps:          0       0       0       0       0       0       0       0       0       0       0       0       
      +0       0       0       0       0       0       0       0       0       0       0       0       0       0       0       
      +0       0       0       0       0       0       0       0       0       0       0       0       0       0       0       
      +0       0       0       0       0       0       0       0       0
  5730 ;;      Totals:        11       0       0       0       0       0       0       0       0       0       0       0       
      +0       0       0       0       0       0       0       0       0       0       0       0       0       0       0       
      +0       0       0       0       0       0       0       0       0       0       0       0       0       0       0       
      +0       0       0       0       0       0       0       0       0
  5731 ;;Total ram usage:       11 bytes
  5732 ;; Hardware stack levels used: 1
  5733 ;; Hardware stack levels required when called: 3
  5734 ;; This function calls:
  5735 ;;		Nothing
  5736 ;; This function is called by:
  5737 ;;		_CAN1_MessageWriteToFifo
  5738 ;; This function uses a non-reentrant model
  5739 ;;
  5740                           
  5741                           	psect	text39
  5742   005736                     __ptext39:
  5743                           	callstack 0
  5744   005736                     _memcpy:
  5745                           	callstack 121
  5746   005736  C506  F50D         	movff	memcpy@s1,memcpy@s
  5747   00573A  C507  F50E         	movff	memcpy@s1+1,memcpy@s+1
  5748   00573E  C504  F50B         	movff	memcpy@d1,memcpy@d
  5749   005742  C505  F50C         	movff	memcpy@d1+1,memcpy@d+1
  5750   005746  EFB5  F02B         	goto	l3350
  5751   00574A                     l3342:
  5752   00574A  C50D  F4D9         	movff	memcpy@s,fsr2l
  5753   00574E  C50E  F4DA         	movff	memcpy@s+1,fsr2h
  5754   005752  50DF               	movf	indf2,w,c
  5755   005754  6E0A               	movwf	memcpy@tmp^(0+1280),c
  5756   005756  4A0D               	infsnz	memcpy@s^(0+1280),f,c
  5757   005758  2A0E               	incf	(memcpy@s+1)^(0+1280),f,c
  5758   00575A  C50B  F4D9         	movff	memcpy@d,fsr2l
  5759   00575E  C50C  F4DA         	movff	memcpy@d+1,fsr2h
  5760   005762  C50A  F4DF         	movff	memcpy@tmp,indf2
  5761   005766  4A0B               	infsnz	memcpy@d^(0+1280),f,c
  5762   005768  2A0C               	incf	(memcpy@d+1)^(0+1280),f,c
  5763   00576A                     l3350:
  5764   00576A  0608               	decf	memcpy@n^(0+1280),f,c
  5765   00576C  A0D8               	btfss	status,0,c
  5766   00576E  0609               	decf	(memcpy@n+1)^(0+1280),f,c
  5767   005770  2808               	incf	memcpy@n^(0+1280),w,c
  5768   005772  E106               	bnz	u2891
  5769   005774  2809               	incf	(memcpy@n+1)^(0+1280),w,c
  5770   005776  A4D8               	btfss	status,2,c
  5771   005778  EFC0  F02B         	goto	u2891
  5772   00577C  EFC2  F02B         	goto	u2890
  5773   005780                     u2891:
  5774   005780  EFA5  F02B         	goto	l3342
  5775   005784                     u2890:
  5776   005784  0012               	return		;funcret
  5777   005786                     __end_of_memcpy:
  5778                           	callstack 0
  5779                           
  5780 ;; *************** function _CAN1_ReceivedMessageCountGet *****************
  5781 ;; Defined at:
  5782 ;;		line 749 in file "mcc_generated_files/can/src/can1.c"
  5783 ;; Parameters:    Size  Location     Type
  5784 ;;		None
  5785 ;; Auto vars:     Size  Location     Type
  5786 ;;  index           1   11[COMRAM] unsigned char 
  5787 ;;  rxfifoMsgTai    1   10[COMRAM] unsigned char 
  5788 ;;  fifoDepth       1    9[COMRAM] unsigned char 
  5789 ;;  fifoChannel     1    8[COMRAM] enum E22631
  5790 ;;  numOfMsg        1    7[COMRAM] unsigned char 
  5791 ;;  rxMsgStatus     1    6[COMRAM] unsigned char 
  5792 ;;  totalMsgObj     1    5[COMRAM] unsigned char 
  5793 ;; Return value:  Size  Location     Type
  5794 ;;                  1    wreg      unsigned char 
  5795 ;; Registers used:
  5796 ;;		wreg, fsr2l, fsr2h, status,2, status,0, prodl, prodh, cstack
  5797 ;; Tracked objects:
  5798 ;;		On entry : 0/0
  5799 ;;		On exit  : 0/0
  5800 ;;		Unchanged: 0/0
  5801 ;; Data sizes:     COMRAM   BANK5   BANK6   BANK7   BANK8   BANK9  BANK10  BANK11  BANK12  BANK13  BANK14  BANK15  BANK1
      +6  BANK17  BANK18  BANK19  BANK20  BANK21  BANK22  BANK23  BANK24  BANK25  BANK26  BANK27  BANK28  BANK29  BANK30  BANK3
      +1  BANK32  BANK33  BANK34  BANK35  BANK36  BANK37  BANK38  BANK39  BANK40  BANK41  BANK42  BANK43  BANK44  BANK45  BANK4
      +6  BANK47  BANK48  BANK49  BANK50  BANK51  BANK52  BANK53  BANK54
  5802 ;;      Params:         0       0       0       0       0       0       0       0       0       0       0       0       
      +0       0       0       0       0       0       0       0       0       0       0       0       0       0       0       
      +0       0       0       0       0       0       0       0       0       0       0       0       0       0       0       
      +0       0       0       0       0       0       0       0       0
  5803 ;;      Locals:         7       0       0       0       0       0       0       0       0       0       0       0       
      +0       0       0       0       0       0       0       0       0       0       0       0       0       0       0       
      +0       0       0       0       0       0       0       0       0       0       0       0       0       0       0       
      +0       0       0       0       0       0       0       0       0
  5804 ;;      Temps:          1       0       0       0       0       0       0       0       0       0       0       0       
      +0       0       0       0       0       0       0       0       0       0       0       0       0       0       0       
      +0       0       0       0       0       0       0       0       0       0       0       0       0       0       0       
      +0       0       0       0       0       0       0       0       0
  5805 ;;      Totals:         8       0       0       0       0       0       0       0       0       0       0       0       
      +0       0       0       0       0       0       0       0       0       0       0       0       0       0       0       
      +0       0       0       0       0       0       0       0       0       0       0       0       0       0       0       
      +0       0       0       0       0       0       0       0       0
  5806 ;;Total ram usage:        8 bytes
  5807 ;; Hardware stack levels used: 1
  5808 ;; Hardware stack levels required when called: 4
  5809 ;; This function calls:
  5810 ;;		_CAN1_GetRxFifoDepth
  5811 ;;		_CAN1_GetRxFifoStatus
  5812 ;; This function is called by:
  5813 ;;		_main
  5814 ;; This function uses a non-reentrant model
  5815 ;;
  5816                           
  5817                           	psect	text40
  5818   004EAA                     __ptext40:
  5819                           	callstack 0
  5820   004EAA                     _CAN1_ReceivedMessageCountGet:
  5821                           	callstack 122
  5822   004EAA                     
  5823                           ;mcc_generated_files/can/src/can1.c: 751:     enum CAN_RX_FIFO_CHANNELS fifoChannel;;mcc
      +                          _generated_files/can/src/can1.c: 752:     uint8_t index = 0;
  5824   004EAA  0E00               	movlw	0
  5825   004EAC  6E0C               	movwf	CAN1_ReceivedMessageCountGet@index^(0+1280),c
  5826                           
  5827                           ;mcc_generated_files/can/src/can1.c: 753:     uint8_t totalMsgObj = 0;
  5828   004EAE  0E00               	movlw	0
  5829   004EB0  6E06               	movwf	CAN1_ReceivedMessageCountGet@totalMsgObj^(0+1280),c
  5830                           
  5831                           ;mcc_generated_files/can/src/can1.c: 756:     uint8_t fifoDepth = 0;
  5832   004EB2  0E00               	movlw	0
  5833   004EB4  6E0A               	movwf	CAN1_ReceivedMessageCountGet@fifoDepth^(0+1280),c
  5834                           
  5835                           ;mcc_generated_files/can/src/can1.c: 757:     uint8_t rxfifoMsgTail = 0;
  5836   004EB6  0E00               	movlw	0
  5837   004EB8  6E0B               	movwf	CAN1_ReceivedMessageCountGet@rxfifoMsgTail^(0+1280),c
  5838                           
  5839                           ;mcc_generated_files/can/src/can1.c: 760:     for (index = 0; index < (1U); index++)
  5840   004EBA  0E00               	movlw	0
  5841   004EBC  6E0C               	movwf	CAN1_ReceivedMessageCountGet@index^(0+1280),c
  5842   004EBE                     l3676:
  5843                           
  5844                           ;mcc_generated_files/can/src/can1.c: 761:     {;mcc_generated_files/can/src/can1.c: 762:
      +                                   fifoChannel = rxFIFOMsg[index].channel;
  5845   004EBE  500C               	movf	CAN1_ReceivedMessageCountGet@index^(0+1280),w,c
  5846   004EC0  0D02               	mullw	2
  5847   004EC2  0E5A               	movlw	low _rxFIFOMsg
  5848   004EC4  24F3               	addwf	243,w,c
  5849   004EC6  6ED9               	movwf	fsr2l,c
  5850   004EC8  0E05               	movlw	high _rxFIFOMsg
  5851   004ECA  20F4               	addwfc	prodh,w,c
  5852   004ECC  6EDA               	movwf	fsr2h,c
  5853   004ECE  50DF               	movf	indf2,w,c
  5854   004ED0  6E09               	movwf	CAN1_ReceivedMessageCountGet@fifoChannel^(0+1280),c
  5855   004ED2                     
  5856                           ;mcc_generated_files/can/src/can1.c: 763:         rxMsgStatus = CAN1_GetRxFifoStatus(fif
      +                          oChannel);
  5857   004ED2  5009               	movf	CAN1_ReceivedMessageCountGet@fifoChannel^(0+1280),w,c
  5858   004ED4  EC19  F02D         	call	_CAN1_GetRxFifoStatus
  5859   004ED8  6E07               	movwf	CAN1_ReceivedMessageCountGet@rxMsgStatus^(0+1280),c
  5860   004EDA                     
  5861                           ;mcc_generated_files/can/src/can1.c: 766:         if ((uint8_t)CAN_RX_MSG_AVAILABLE == (
      +                          rxMsgStatus & (uint8_t)CAN_RX_MSG_AVAILABLE))
  5862   004EDA  A007               	btfss	CAN1_ReceivedMessageCountGet@rxMsgStatus^(0+1280),0,c
  5863   004EDC  EF72  F027         	goto	u3391
  5864   004EE0  EF74  F027         	goto	u3390
  5865   004EE4                     u3391:
  5866   004EE4  EFCF  F027         	goto	l3698
  5867   004EE8                     u3390:
  5868   004EE8                     
  5869                           ;mcc_generated_files/can/src/can1.c: 767:         {;mcc_generated_files/can/src/can1.c: 
      +                          768:             fifoDepth = CAN1_GetRxFifoDepth(fifoChannel);
  5870   004EE8  5009               	movf	CAN1_ReceivedMessageCountGet@fifoChannel^(0+1280),w,c
  5871   004EEA  ECD6  F02C         	call	_CAN1_GetRxFifoDepth
  5872   004EEE  6E0A               	movwf	CAN1_ReceivedMessageCountGet@fifoDepth^(0+1280),c
  5873   004EF0                     
  5874                           ;mcc_generated_files/can/src/can1.c: 771:             if ((uint8_t)CAN_RX_MSG_OVERFLOW =
      +                          = (rxMsgStatus & (uint8_t)CAN_RX_MSG_OVERFLOW))
  5875   004EF0  A607               	btfss	CAN1_ReceivedMessageCountGet@rxMsgStatus^(0+1280),3,c
  5876   004EF2  EF7D  F027         	goto	u3401
  5877   004EF6  EF7F  F027         	goto	u3400
  5878   004EFA                     u3401:
  5879   004EFA  EF83  F027         	goto	l3688
  5880   004EFE                     u3400:
  5881   004EFE                     l3686:
  5882                           
  5883                           ;mcc_generated_files/can/src/can1.c: 772:             {;mcc_generated_files/can/src/can1
      +                          .c: 773:                 numOfMsg = fifoDepth;
  5884   004EFE  C50A  F508         	movff	CAN1_ReceivedMessageCountGet@fifoDepth,CAN1_ReceivedMessageCountGet@numOfMsg
  5885                           
  5886                           ;mcc_generated_files/can/src/can1.c: 774:             }
  5887   004F02  EFCD  F027         	goto	l3696
  5888   004F06                     l3688:
  5889                           
  5890                           ;mcc_generated_files/can/src/can1.c: 776:             {;mcc_generated_files/can/src/can1
      +                          .c: 777:                 rxfifoMsgTail = FIFO[fifoChannel].STAH & 0x1F;
  5891   004F06  5009               	movf	CAN1_ReceivedMessageCountGet@fifoChannel^(0+1280),w,c
  5892   004F08  0D0C               	mullw	12
  5893   004F0A  0E55               	movlw	85
  5894   004F0C  24F3               	addwf	243,w,c
  5895   004F0E  6ED9               	movwf	fsr2l,c
  5896   004F10  0E01               	movlw	1
  5897   004F12  20F4               	addwfc	prodh,w,c
  5898   004F14  6EDA               	movwf	fsr2h,c
  5899   004F16  50DF               	movf	indf2,w,c
  5900   004F18  0B1F               	andlw	31
  5901   004F1A  6E0B               	movwf	CAN1_ReceivedMessageCountGet@rxfifoMsgTail^(0+1280),c
  5902                           
  5903                           ;mcc_generated_files/can/src/can1.c: 779:                 if (rxfifoMsgTail < rxFIFOMsg[
      +                          index].headCount)
  5904   004F1C  500C               	movf	CAN1_ReceivedMessageCountGet@index^(0+1280),w,c
  5905   004F1E  0D02               	mullw	2
  5906   004F20  0E5B               	movlw	low (_rxFIFOMsg+1)
  5907   004F22  24F3               	addwf	243,w,c
  5908   004F24  6ED9               	movwf	fsr2l,c
  5909   004F26  0E05               	movlw	high (_rxFIFOMsg+1)
  5910   004F28  20F4               	addwfc	prodh,w,c
  5911   004F2A  6EDA               	movwf	fsr2h,c
  5912   004F2C  50DE               	movf	postinc2,w,c
  5913   004F2E  5C0B               	subwf	CAN1_ReceivedMessageCountGet@rxfifoMsgTail^(0+1280),w,c
  5914   004F30  B0D8               	btfsc	status,0,c
  5915   004F32  EF9D  F027         	goto	u3411
  5916   004F36  EF9F  F027         	goto	u3410
  5917   004F3A                     u3411:
  5918   004F3A  EFAF  F027         	goto	l3692
  5919   004F3E                     u3410:
  5920   004F3E                     
  5921                           ;mcc_generated_files/can/src/can1.c: 780:                 {;mcc_generated_files/can/src/
      +                          can1.c: 781:                     numOfMsg = ((rxfifoMsgTail + fifoDepth) - rxFIFOMsg[ind
      +                          ex].headCount);
  5922   004F3E  500C               	movf	CAN1_ReceivedMessageCountGet@index^(0+1280),w,c
  5923   004F40  0D02               	mullw	2
  5924   004F42  0E5B               	movlw	low (_rxFIFOMsg+1)
  5925   004F44  24F3               	addwf	243,w,c
  5926   004F46  6ED9               	movwf	fsr2l,c
  5927   004F48  0E05               	movlw	high (_rxFIFOMsg+1)
  5928   004F4A  20F4               	addwfc	prodh,w,c
  5929   004F4C  6EDA               	movwf	fsr2h,c
  5930   004F4E  50DF               	movf	indf2,w,c
  5931   004F50  6E05               	movwf	??_CAN1_ReceivedMessageCountGet^(0+1280),c
  5932   004F52  5005               	movf	??_CAN1_ReceivedMessageCountGet^(0+1280),w,c
  5933   004F54  5C0B               	subwf	CAN1_ReceivedMessageCountGet@rxfifoMsgTail^(0+1280),w,c
  5934   004F56  240A               	addwf	CAN1_ReceivedMessageCountGet@fifoDepth^(0+1280),w,c
  5935   004F58  6E08               	movwf	CAN1_ReceivedMessageCountGet@numOfMsg^(0+1280),c
  5936                           
  5937                           ;mcc_generated_files/can/src/can1.c: 782:                 }
  5938   004F5A  EFCD  F027         	goto	l3696
  5939   004F5E                     l3692:
  5940   004F5E  500C               	movf	CAN1_ReceivedMessageCountGet@index^(0+1280),w,c
  5941   004F60  0D02               	mullw	2
  5942   004F62  0E5B               	movlw	low (_rxFIFOMsg+1)
  5943   004F64  24F3               	addwf	243,w,c
  5944   004F66  6ED9               	movwf	fsr2l,c
  5945   004F68  0E05               	movlw	high (_rxFIFOMsg+1)
  5946   004F6A  20F4               	addwfc	prodh,w,c
  5947   004F6C  6EDA               	movwf	fsr2h,c
  5948   004F6E  500B               	movf	CAN1_ReceivedMessageCountGet@rxfifoMsgTail^(0+1280),w,c
  5949   004F70  5CDE               	subwf	postinc2,w,c
  5950   004F72  B0D8               	btfsc	status,0,c
  5951   004F74  EFBE  F027         	goto	u3421
  5952   004F78  EFC0  F027         	goto	u3420
  5953   004F7C                     u3421:
  5954   004F7C  EF7F  F027         	goto	l3686
  5955   004F80                     u3420:
  5956   004F80                     
  5957                           ;mcc_generated_files/can/src/can1.c: 784:                 {;mcc_generated_files/can/src/
      +                          can1.c: 785:                     numOfMsg = rxfifoMsgTail - rxFIFOMsg[index].headCount;
  5958   004F80  500C               	movf	CAN1_ReceivedMessageCountGet@index^(0+1280),w,c
  5959   004F82  0D02               	mullw	2
  5960   004F84  0E5B               	movlw	low (_rxFIFOMsg+1)
  5961   004F86  24F3               	addwf	243,w,c
  5962   004F88  6ED9               	movwf	fsr2l,c
  5963   004F8A  0E05               	movlw	high (_rxFIFOMsg+1)
  5964   004F8C  20F4               	addwfc	prodh,w,c
  5965   004F8E  6EDA               	movwf	fsr2h,c
  5966   004F90  50DF               	movf	indf2,w,c
  5967   004F92  6E05               	movwf	??_CAN1_ReceivedMessageCountGet^(0+1280),c
  5968   004F94  5005               	movf	??_CAN1_ReceivedMessageCountGet^(0+1280),w,c
  5969   004F96  5C0B               	subwf	CAN1_ReceivedMessageCountGet@rxfifoMsgTail^(0+1280),w,c
  5970   004F98  6E08               	movwf	CAN1_ReceivedMessageCountGet@numOfMsg^(0+1280),c
  5971   004F9A                     l3696:
  5972                           
  5973                           ;mcc_generated_files/can/src/can1.c: 793:             totalMsgObj += numOfMsg;
  5974   004F9A  5008               	movf	CAN1_ReceivedMessageCountGet@numOfMsg^(0+1280),w,c
  5975   004F9C  2606               	addwf	CAN1_ReceivedMessageCountGet@totalMsgObj^(0+1280),f,c
  5976   004F9E                     l3698:
  5977                           
  5978                           ;mcc_generated_files/can/src/can1.c: 795:     }
  5979   004F9E  2A0C               	incf	CAN1_ReceivedMessageCountGet@index^(0+1280),f,c
  5980   004FA0  500C               	movf	CAN1_ReceivedMessageCountGet@index^(0+1280),w,c
  5981   004FA2  B4D8               	btfsc	status,2,c
  5982   004FA4  EFD6  F027         	goto	u3431
  5983   004FA8  EFD8  F027         	goto	u3430
  5984   004FAC                     u3431:
  5985   004FAC  EF5F  F027         	goto	l3676
  5986   004FB0                     u3430:
  5987   004FB0                     
  5988                           ;mcc_generated_files/can/src/can1.c: 797:     return totalMsgObj;
  5989   004FB0  5006               	movf	CAN1_ReceivedMessageCountGet@totalMsgObj^(0+1280),w,c
  5990   004FB2  0012               	return		;funcret
  5991   004FB4                     __end_of_CAN1_ReceivedMessageCountGet:
  5992                           	callstack 0
  5993                           
  5994 ;; *************** function _CAN1_Receive *****************
  5995 ;; Defined at:
  5996 ;;		line 713 in file "mcc_generated_files/can/src/can1.c"
  5997 ;; Parameters:    Size  Location     Type
  5998 ;;  rxCanMsg        2   24[COMRAM] PTR struct CAN_MSG_OBJ
  5999 ;;		 -> RxFrm(7), 
  6000 ;; Auto vars:     Size  Location     Type
  6001 ;;  index           1   27[COMRAM] unsigned char 
  6002 ;;  status          1   26[COMRAM] _Bool 
  6003 ;; Return value:  Size  Location     Type
  6004 ;;                  1    wreg      _Bool 
  6005 ;; Registers used:
  6006 ;;		wreg, fsr1l, fsr1h, fsr2l, fsr2h, status,2, status,0, tblptrl, tblptrh, tblptru, prodl, prodh, cstack
  6007 ;; Tracked objects:
  6008 ;;		On entry : 0/0
  6009 ;;		On exit  : 0/0
  6010 ;;		Unchanged: 0/0
  6011 ;; Data sizes:     COMRAM   BANK5   BANK6   BANK7   BANK8   BANK9  BANK10  BANK11  BANK12  BANK13  BANK14  BANK15  BANK1
      +6  BANK17  BANK18  BANK19  BANK20  BANK21  BANK22  BANK23  BANK24  BANK25  BANK26  BANK27  BANK28  BANK29  BANK30  BANK3
      +1  BANK32  BANK33  BANK34  BANK35  BANK36  BANK37  BANK38  BANK39  BANK40  BANK41  BANK42  BANK43  BANK44  BANK45  BANK4
      +6  BANK47  BANK48  BANK49  BANK50  BANK51  BANK52  BANK53  BANK54
  6012 ;;      Params:         2       0       0       0       0       0       0       0       0       0       0       0       
      +0       0       0       0       0       0       0       0       0       0       0       0       0       0       0       
      +0       0       0       0       0       0       0       0       0       0       0       0       0       0       0       
      +0       0       0       0       0       0       0       0       0
  6013 ;;      Locals:         2       0       0       0       0       0       0       0       0       0       0       0       
      +0       0       0       0       0       0       0       0       0       0       0       0       0       0       0       
      +0       0       0       0       0       0       0       0       0       0       0       0       0       0       0       
      +0       0       0       0       0       0       0       0       0
  6014 ;;      Temps:          0       0       0       0       0       0       0       0       0       0       0       0       
      +0       0       0       0       0       0       0       0       0       0       0       0       0       0       0       
      +0       0       0       0       0       0       0       0       0       0       0       0       0       0       0       
      +0       0       0       0       0       0       0       0       0
  6015 ;;      Totals:         4       0       0       0       0       0       0       0       0       0       0       0       
      +0       0       0       0       0       0       0       0       0       0       0       0       0       0       0       
      +0       0       0       0       0       0       0       0       0       0       0       0       0       0       0       
      +0       0       0       0       0       0       0       0       0
  6016 ;;Total ram usage:        4 bytes
  6017 ;; Hardware stack levels used: 1
  6018 ;; Hardware stack levels required when called: 6
  6019 ;; This function calls:
  6020 ;;		_CAN1_ReceiveFromFiFo
  6021 ;; This function is called by:
  6022 ;;		_main
  6023 ;; This function uses a non-reentrant model
  6024 ;;
  6025                           
  6026                           	psect	text41
  6027   0056E4                     __ptext41:
  6028                           	callstack 0
  6029   0056E4                     _CAN1_Receive:
  6030                           	callstack 120
  6031   0056E4                     
  6032                           ;mcc_generated_files/can/src/can1.c: 719:     for (index = 0; index < (1U); index++)
  6033   0056E4  0E00               	movlw	0
  6034   0056E6  6E1C               	movwf	CAN1_Receive@index^(0+1280),c
  6035   0056E8                     l3658:
  6036                           
  6037                           ;mcc_generated_files/can/src/can1.c: 720:     {;mcc_generated_files/can/src/can1.c: 721:
      +                                   status = CAN1_ReceiveFromFiFo(index, rxFIFOMsg[index].channel, rxCanMsg);
  6038   0056E8  501C               	movf	CAN1_Receive@index^(0+1280),w,c
  6039   0056EA  0D02               	mullw	2
  6040   0056EC  0E5A               	movlw	low _rxFIFOMsg
  6041   0056EE  24F3               	addwf	243,w,c
  6042   0056F0  6ED9               	movwf	fsr2l,c
  6043   0056F2  0E05               	movlw	high _rxFIFOMsg
  6044   0056F4  20F4               	addwfc	prodh,w,c
  6045   0056F6  6EDA               	movwf	fsr2h,c
  6046   0056F8  50DF               	movf	indf2,w,c
  6047   0056FA  6E0F               	movwf	CAN1_ReceiveFromFiFo@channel^(0+1280),c
  6048   0056FC  C519  F510         	movff	CAN1_Receive@rxCanMsg,CAN1_ReceiveFromFiFo@rxCanMsg
  6049   005700  C51A  F511         	movff	CAN1_Receive@rxCanMsg+1,CAN1_ReceiveFromFiFo@rxCanMsg+1
  6050   005704  501C               	movf	CAN1_Receive@index^(0+1280),w,c
  6051   005706  EC5B  F028         	call	_CAN1_ReceiveFromFiFo
  6052   00570A  6E1B               	movwf	CAN1_Receive@status^(0+1280),c
  6053   00570C                     
  6054                           ;mcc_generated_files/can/src/can1.c: 723:         if (status)
  6055   00570C  501B               	movf	CAN1_Receive@status^(0+1280),w,c
  6056   00570E  B4D8               	btfsc	status,2,c
  6057   005710  EF8C  F02B         	goto	u3371
  6058   005714  EF8E  F02B         	goto	u3370
  6059   005718                     u3371:
  6060   005718  EF90  F02B         	goto	l3664
  6061   00571C                     u3370:
  6062   00571C  EF99  F02B         	goto	l3668
  6063   005720                     l3664:
  6064                           
  6065                           ;mcc_generated_files/can/src/can1.c: 727:     }
  6066   005720  2A1C               	incf	CAN1_Receive@index^(0+1280),f,c
  6067   005722  501C               	movf	CAN1_Receive@index^(0+1280),w,c
  6068   005724  B4D8               	btfsc	status,2,c
  6069   005726  EF97  F02B         	goto	u3381
  6070   00572A  EF99  F02B         	goto	u3380
  6071   00572E                     u3381:
  6072   00572E  EF74  F02B         	goto	l3658
  6073   005732                     u3380:
  6074   005732                     l3668:
  6075                           
  6076                           ;mcc_generated_files/can/src/can1.c: 729:     return status;
  6077   005732  501B               	movf	CAN1_Receive@status^(0+1280),w,c
  6078   005734  0012               	return		;funcret
  6079   005736                     __end_of_CAN1_Receive:
  6080                           	callstack 0
  6081                           
  6082 ;; *************** function _CAN1_ReceiveFromFiFo *****************
  6083 ;; Defined at:
  6084 ;;		line 399 in file "mcc_generated_files/can/src/can1.c"
  6085 ;; Parameters:    Size  Location     Type
  6086 ;;  index           1    wreg     unsigned char 
  6087 ;;  channel         1   14[COMRAM] enum E22631
  6088 ;;  rxCanMsg        2   15[COMRAM] PTR struct CAN_MSG_OBJ
  6089 ;;		 -> RxFrm(7), 
  6090 ;; Auto vars:     Size  Location     Type
  6091 ;;  index           1   23[COMRAM] unsigned char 
  6092 ;;  rxFifoObj       2   20[COMRAM] PTR unsigned char 
  6093 ;;		 -> RAM(14079), 
  6094 ;;  rxMsgStatus     1   22[COMRAM] unsigned char 
  6095 ;;  status          1   19[COMRAM] _Bool 
  6096 ;; Return value:  Size  Location     Type
  6097 ;;                  1    wreg      _Bool 
  6098 ;; Registers used:
  6099 ;;		wreg, fsr1l, fsr1h, fsr2l, fsr2h, status,2, status,0, tblptrl, tblptrh, tblptru, prodl, prodh, cstack
  6100 ;; Tracked objects:
  6101 ;;		On entry : 0/0
  6102 ;;		On exit  : 0/0
  6103 ;;		Unchanged: 0/0
  6104 ;; Data sizes:     COMRAM   BANK5   BANK6   BANK7   BANK8   BANK9  BANK10  BANK11  BANK12  BANK13  BANK14  BANK15  BANK1
      +6  BANK17  BANK18  BANK19  BANK20  BANK21  BANK22  BANK23  BANK24  BANK25  BANK26  BANK27  BANK28  BANK29  BANK30  BANK3
      +1  BANK32  BANK33  BANK34  BANK35  BANK36  BANK37  BANK38  BANK39  BANK40  BANK41  BANK42  BANK43  BANK44  BANK45  BANK4
      +6  BANK47  BANK48  BANK49  BANK50  BANK51  BANK52  BANK53  BANK54
  6105 ;;      Params:         3       0       0       0       0       0       0       0       0       0       0       0       
      +0       0       0       0       0       0       0       0       0       0       0       0       0       0       0       
      +0       0       0       0       0       0       0       0       0       0       0       0       0       0       0       
      +0       0       0       0       0       0       0       0       0
  6106 ;;      Locals:         5       0       0       0       0       0       0       0       0       0       0       0       
      +0       0       0       0       0       0       0       0       0       0       0       0       0       0       0       
      +0       0       0       0       0       0       0       0       0       0       0       0       0       0       0       
      +0       0       0       0       0       0       0       0       0
  6107 ;;      Temps:          2       0       0       0       0       0       0       0       0       0       0       0       
      +0       0       0       0       0       0       0       0       0       0       0       0       0       0       0       
      +0       0       0       0       0       0       0       0       0       0       0       0       0       0       0       
      +0       0       0       0       0       0       0       0       0
  6108 ;;      Totals:        10       0       0       0       0       0       0       0       0       0       0       0       
      +0       0       0       0       0       0       0       0       0       0       0       0       0       0       0       
      +0       0       0       0       0       0       0       0       0       0       0       0       0       0       0       
      +0       0       0       0       0       0       0       0       0
  6109 ;;Total ram usage:       10 bytes
  6110 ;; Hardware stack levels used: 1
  6111 ;; Hardware stack levels required when called: 5
  6112 ;; This function calls:
  6113 ;;		_CAN1_GetRxFifoDepth
  6114 ;;		_CAN1_GetRxFifoStatus
  6115 ;;		_CAN1_MessageReadFromFifo
  6116 ;; This function is called by:
  6117 ;;		_CAN1_Receive
  6118 ;;		_CAN1_ReceiveMessageGet
  6119 ;; This function uses a non-reentrant model
  6120 ;;
  6121                           
  6122                           	psect	text42
  6123   0050B6                     __ptext42:
  6124                           	callstack 0
  6125   0050B6                     _CAN1_ReceiveFromFiFo:
  6126                           	callstack 120
  6127                           
  6128                           ;incstack = 0
  6129                           ;CAN1_ReceiveFromFiFo@index stored from wreg
  6130   0050B6  6E18               	movwf	CAN1_ReceiveFromFiFo@index^(0+1280),c
  6131   0050B8                     
  6132                           ;mcc_generated_files/can/src/can1.c: 399: static _Bool CAN1_ReceiveFromFiFo(uint8_t inde
      +                          x, enum CAN_RX_FIFO_CHANNELS channel, struct CAN_MSG_OBJ *rxCanMsg);mcc_generated_files/
      +                          can/src/can1.c: 400: {;mcc_generated_files/can/src/can1.c: 401:     _Bool status = 0;
  6133   0050B8  0E00               	movlw	0
  6134   0050BA  6E14               	movwf	CAN1_ReceiveFromFiFo@status^(0+1280),c
  6135   0050BC                     
  6136                           ;mcc_generated_files/can/src/can1.c: 402:     uint8_t rxMsgStatus;;mcc_generated_files/c
      +                          an/src/can1.c: 403:     uint8_t *rxFifoObj;;mcc_generated_files/can/src/can1.c: 405:    
      +                           rxMsgStatus = CAN1_GetRxFifoStatus(channel);
  6137   0050BC  500F               	movf	CAN1_ReceiveFromFiFo@channel^(0+1280),w,c
  6138   0050BE  EC19  F02D         	call	_CAN1_GetRxFifoStatus
  6139   0050C2  6E17               	movwf	CAN1_ReceiveFromFiFo@rxMsgStatus^(0+1280),c
  6140   0050C4                     
  6141                           ;mcc_generated_files/can/src/can1.c: 408:     if ((uint8_t)CAN_RX_MSG_AVAILABLE == (rxMs
      +                          gStatus & (uint8_t)CAN_RX_MSG_AVAILABLE))
  6142   0050C4  A017               	btfss	CAN1_ReceiveFromFiFo@rxMsgStatus^(0+1280),0,c
  6143   0050C6  EF67  F028         	goto	u3231
  6144   0050CA  EF69  F028         	goto	u3230
  6145   0050CE                     u3231:
  6146   0050CE  EFCC  F028         	goto	l3524
  6147   0050D2                     u3230:
  6148   0050D2                     
  6149                           ;mcc_generated_files/can/src/can1.c: 409:     {;mcc_generated_files/can/src/can1.c: 410:
      +                                   rxFifoObj = (uint8_t *) FIFO[channel].UA;
  6150   0050D2  500F               	movf	CAN1_ReceiveFromFiFo@channel^(0+1280),w,c
  6151   0050D4  0D0C               	mullw	12
  6152   0050D6  0E58               	movlw	88
  6153   0050D8  24F3               	addwf	243,w,c
  6154   0050DA  6ED9               	movwf	fsr2l,c
  6155   0050DC  0E01               	movlw	1
  6156   0050DE  20F4               	addwfc	prodh,w,c
  6157   0050E0  6EDA               	movwf	fsr2h,c
  6158   0050E2  C4DE F515          	movff	postinc2,CAN1_ReceiveFromFiFo@rxFifoObj
  6159   0050E6  C4DD F516          	movff	postdec2,CAN1_ReceiveFromFiFo@rxFifoObj+1
  6160   0050EA                     
  6161                           ;mcc_generated_files/can/src/can1.c: 412:         if (rxFifoObj != ((void*)0))
  6162   0050EA  5015               	movf	CAN1_ReceiveFromFiFo@rxFifoObj^(0+1280),w,c
  6163   0050EC  1016               	iorwf	(CAN1_ReceiveFromFiFo@rxFifoObj+1)^(0+1280),w,c
  6164   0050EE  B4D8               	btfsc	status,2,c
  6165   0050F0  EF7C  F028         	goto	u3241
  6166   0050F4  EF7E  F028         	goto	u3240
  6167   0050F8                     u3241:
  6168   0050F8  EFCC  F028         	goto	l3524
  6169   0050FC                     u3240:
  6170   0050FC                     
  6171                           ;mcc_generated_files/can/src/can1.c: 413:         {;mcc_generated_files/can/src/can1.c: 
      +                          414:             CAN1_MessageReadFromFifo(rxFifoObj, rxCanMsg);
  6172   0050FC  C515  F504         	movff	CAN1_ReceiveFromFiFo@rxFifoObj,CAN1_MessageReadFromFifo@rxFifoObj
  6173   005100  C516  F505         	movff	CAN1_ReceiveFromFiFo@rxFifoObj+1,CAN1_MessageReadFromFifo@rxFifoObj+1
  6174   005104  C510  F506         	movff	CAN1_ReceiveFromFiFo@rxCanMsg,CAN1_MessageReadFromFifo@rxCanMsg
  6175   005108  C511  F507         	movff	CAN1_ReceiveFromFiFo@rxCanMsg+1,CAN1_MessageReadFromFifo@rxCanMsg+1
  6176   00510C  EC22  F023         	call	_CAN1_MessageReadFromFifo	;wreg free
  6177   005110                     
  6178                           ;mcc_generated_files/can/src/can1.c: 417:             FIFO[channel].CONH |= 0x1;
  6179   005110  500F               	movf	CAN1_ReceiveFromFiFo@channel^(0+1280),w,c
  6180   005112  0D0C               	mullw	12
  6181   005114  0E51               	movlw	81
  6182   005116  24F3               	addwf	243,w,c
  6183   005118  6ED9               	movwf	fsr2l,c
  6184   00511A  0E01               	movlw	1
  6185   00511C  20F4               	addwfc	prodh,w,c
  6186   00511E  6EDA               	movwf	fsr2h,c
  6187   005120  0E00               	movlw	0
  6188   005122  80DB               	bsf	plusw2,0,c
  6189   005124                     
  6190                           ;mcc_generated_files/can/src/can1.c: 420:             rxFIFOMsg[index].headCount += 1U;
  6191   005124  5018               	movf	CAN1_ReceiveFromFiFo@index^(0+1280),w,c
  6192   005126  0D02               	mullw	2
  6193   005128  0E5B               	movlw	low (_rxFIFOMsg+1)
  6194   00512A  24F3               	addwf	243,w,c
  6195   00512C  6ED9               	movwf	fsr2l,c
  6196   00512E  0E05               	movlw	high (_rxFIFOMsg+1)
  6197   005130  20F4               	addwfc	prodh,w,c
  6198   005132  6EDA               	movwf	fsr2h,c
  6199   005134  2ADF               	incf	indf2,f,c
  6200   005136                     
  6201                           ;mcc_generated_files/can/src/can1.c: 422:             if (rxFIFOMsg[index].headCount >= 
      +                          CAN1_GetRxFifoDepth(channel))
  6202   005136  500F               	movf	CAN1_ReceiveFromFiFo@channel^(0+1280),w,c
  6203   005138  ECD6  F02C         	call	_CAN1_GetRxFifoDepth
  6204   00513C  6E12               	movwf	??_CAN1_ReceiveFromFiFo^(0+1280),c
  6205   00513E  5018               	movf	CAN1_ReceiveFromFiFo@index^(0+1280),w,c
  6206   005140  0D02               	mullw	2
  6207   005142  0E5B               	movlw	low (_rxFIFOMsg+1)
  6208   005144  24F3               	addwf	243,w,c
  6209   005146  6ED9               	movwf	fsr2l,c
  6210   005148  0E05               	movlw	high (_rxFIFOMsg+1)
  6211   00514A  20F4               	addwfc	prodh,w,c
  6212   00514C  6EDA               	movwf	fsr2h,c
  6213   00514E  5012               	movf	??_CAN1_ReceiveFromFiFo^(0+1280),w,c
  6214   005150  5CDE               	subwf	postinc2,w,c
  6215   005152  A0D8               	btfss	status,0,c
  6216   005154  EFAE  F028         	goto	u3251
  6217   005158  EFB0  F028         	goto	u3250
  6218   00515C                     u3251:
  6219   00515C  EFB9  F028         	goto	l3518
  6220   005160                     u3250:
  6221   005160                     
  6222                           ;mcc_generated_files/can/src/can1.c: 423:             {;mcc_generated_files/can/src/can1
      +                          .c: 424:                 rxFIFOMsg[index].headCount = 0U;
  6223   005160  5018               	movf	CAN1_ReceiveFromFiFo@index^(0+1280),w,c
  6224   005162  0D02               	mullw	2
  6225   005164  0E5B               	movlw	low (_rxFIFOMsg+1)
  6226   005166  24F3               	addwf	243,w,c
  6227   005168  6ED9               	movwf	fsr2l,c
  6228   00516A  0E05               	movlw	high (_rxFIFOMsg+1)
  6229   00516C  20F4               	addwfc	prodh,w,c
  6230   00516E  6EDA               	movwf	fsr2h,c
  6231   005170  6ADF               	clrf	indf2,c
  6232   005172                     l3518:
  6233                           
  6234                           ;mcc_generated_files/can/src/can1.c: 428:             if ((uint8_t)CAN_RX_MSG_OVERFLOW =
      +                          = (rxMsgStatus & (uint8_t)CAN_RX_MSG_OVERFLOW))
  6235   005172  A617               	btfss	CAN1_ReceiveFromFiFo@rxMsgStatus^(0+1280),3,c
  6236   005174  EFBE  F028         	goto	u3261
  6237   005178  EFC0  F028         	goto	u3260
  6238   00517C                     u3261:
  6239   00517C  EFCA  F028         	goto	l3522
  6240   005180                     u3260:
  6241   005180                     
  6242                           ;mcc_generated_files/can/src/can1.c: 429:             {;mcc_generated_files/can/src/can1
      +                          .c: 431:                 FIFO[channel].STAL &= ~0x8;
  6243   005180  500F               	movf	CAN1_ReceiveFromFiFo@channel^(0+1280),w,c
  6244   005182  0D0C               	mullw	12
  6245   005184  0E54               	movlw	84
  6246   005186  24F3               	addwf	243,w,c
  6247   005188  6ED9               	movwf	fsr2l,c
  6248   00518A  0E01               	movlw	1
  6249   00518C  20F4               	addwfc	prodh,w,c
  6250   00518E  6EDA               	movwf	fsr2h,c
  6251   005190  0EF7               	movlw	247
  6252   005192  16DF               	andwf	indf2,f,c
  6253   005194                     l3522:
  6254                           
  6255                           ;mcc_generated_files/can/src/can1.c: 434:             status = 1;
  6256   005194  0E01               	movlw	1
  6257   005196  6E14               	movwf	CAN1_ReceiveFromFiFo@status^(0+1280),c
  6258   005198                     l3524:
  6259                           
  6260                           ;mcc_generated_files/can/src/can1.c: 438:     return status;
  6261   005198  5014               	movf	CAN1_ReceiveFromFiFo@status^(0+1280),w,c
  6262   00519A  0012               	return		;funcret
  6263   00519C                     __end_of_CAN1_ReceiveFromFiFo:
  6264                           	callstack 0
  6265                           
  6266 ;; *************** function _CAN1_MessageReadFromFifo *****************
  6267 ;; Defined at:
  6268 ;;		line 348 in file "mcc_generated_files/can/src/can1.c"
  6269 ;; Parameters:    Size  Location     Type
  6270 ;;  rxFifoObj       2    3[COMRAM] PTR unsigned char 
  6271 ;;		 -> RAM(14079), 
  6272 ;;  rxCanMsg        2    5[COMRAM] PTR struct CAN_MSG_OBJ
  6273 ;;		 -> RxFrm(7), 
  6274 ;; Auto vars:     Size  Location     Type
  6275 ;;  msgId           4    9[COMRAM] unsigned long 
  6276 ;;  index           1   13[COMRAM] unsigned char 
  6277 ;; Return value:  Size  Location     Type
  6278 ;;                  1    wreg      void 
  6279 ;; Registers used:
  6280 ;;		wreg, fsr1l, fsr1h, fsr2l, fsr2h, status,2, status,0, tblptrl, tblptrh, tblptru, cstack
  6281 ;; Tracked objects:
  6282 ;;		On entry : 0/0
  6283 ;;		On exit  : 0/0
  6284 ;;		Unchanged: 0/0
  6285 ;; Data sizes:     COMRAM   BANK5   BANK6   BANK7   BANK8   BANK9  BANK10  BANK11  BANK12  BANK13  BANK14  BANK15  BANK1
      +6  BANK17  BANK18  BANK19  BANK20  BANK21  BANK22  BANK23  BANK24  BANK25  BANK26  BANK27  BANK28  BANK29  BANK30  BANK3
      +1  BANK32  BANK33  BANK34  BANK35  BANK36  BANK37  BANK38  BANK39  BANK40  BANK41  BANK42  BANK43  BANK44  BANK45  BANK4
      +6  BANK47  BANK48  BANK49  BANK50  BANK51  BANK52  BANK53  BANK54
  6286 ;;      Params:         4       0       0       0       0       0       0       0       0       0       0       0       
      +0       0       0       0       0       0       0       0       0       0       0       0       0       0       0       
      +0       0       0       0       0       0       0       0       0       0       0       0       0       0       0       
      +0       0       0       0       0       0       0       0       0
  6287 ;;      Locals:         5       0       0       0       0       0       0       0       0       0       0       0       
      +0       0       0       0       0       0       0       0       0       0       0       0       0       0       0       
      +0       0       0       0       0       0       0       0       0       0       0       0       0       0       0       
      +0       0       0       0       0       0       0       0       0
  6288 ;;      Temps:          2       0       0       0       0       0       0       0       0       0       0       0       
      +0       0       0       0       0       0       0       0       0       0       0       0       0       0       0       
      +0       0       0       0       0       0       0       0       0       0       0       0       0       0       0       
      +0       0       0       0       0       0       0       0       0
  6289 ;;      Totals:        11       0       0       0       0       0       0       0       0       0       0       0       
      +0       0       0       0       0       0       0       0       0       0       0       0       0       0       0       
      +0       0       0       0       0       0       0       0       0       0       0       0       0       0       0       
      +0       0       0       0       0       0       0       0       0
  6290 ;;Total ram usage:       11 bytes
  6291 ;; Hardware stack levels used: 1
  6292 ;; Hardware stack levels required when called: 4
  6293 ;; This function calls:
  6294 ;;		_CAN1_DlcToDataBytesGet
  6295 ;; This function is called by:
  6296 ;;		_CAN1_ReceiveFromFiFo
  6297 ;; This function uses a non-reentrant model
  6298 ;;
  6299                           
  6300                           	psect	text43
  6301   004644                     __ptext43:
  6302                           	callstack 0
  6303   004644                     _CAN1_MessageReadFromFifo:
  6304                           	callstack 120
  6305   004644                     
  6306                           ;mcc_generated_files/can/src/can1.c: 348: static void CAN1_MessageReadFromFifo(uint8_t *
      +                          rxFifoObj, struct CAN_MSG_OBJ *rxCanMsg);mcc_generated_files/can/src/can1.c: 349: {;mcc_
      +                          generated_files/can/src/can1.c: 350:  uint8_t index;;mcc_generated_files/can/src/can1.c:
      +                           351:     uint32_t msgId;;mcc_generated_files/can/src/can1.c: 354:     rxCanMsg->field.d
      +                          lc = rxFifoObj[4];
  6307   004644  EE20 F004          	lfsr	2,4
  6308   004648  5004               	movf	CAN1_MessageReadFromFifo@rxFifoObj^(0+1280),w,c
  6309   00464A  26D9               	addwf	fsr2l,f,c
  6310   00464C  5005               	movf	(CAN1_MessageReadFromFifo@rxFifoObj+1)^(0+1280),w,c
  6311   00464E  22DA               	addwfc	fsr2h,f,c
  6312   004650  50DF               	movf	indf2,w,c
  6313   004652  6E08               	movwf	??_CAN1_MessageReadFromFifo^(0+1280),c
  6314   004654  EE20 F004          	lfsr	2,4
  6315   004658  5006               	movf	CAN1_MessageReadFromFifo@rxCanMsg^(0+1280),w,c
  6316   00465A  26D9               	addwf	fsr2l,f,c
  6317   00465C  5007               	movf	(CAN1_MessageReadFromFifo@rxCanMsg+1)^(0+1280),w,c
  6318   00465E  22DA               	addwfc	fsr2h,f,c
  6319   004660  4608               	rlncf	??_CAN1_MessageReadFromFifo^(0+1280),f,c
  6320   004662  4608               	rlncf	??_CAN1_MessageReadFromFifo^(0+1280),f,c
  6321   004664  50DF               	movf	223,w,c
  6322   004666  1808               	xorwf	??_CAN1_MessageReadFromFifo^(0+1280),w,c
  6323   004668  0BC3               	andlw	-61
  6324   00466A  1808               	xorwf	??_CAN1_MessageReadFromFifo^(0+1280),w,c
  6325   00466C  6EDF               	movwf	223,c
  6326                           
  6327                           ;mcc_generated_files/can/src/can1.c: 355:     rxCanMsg->field.idType = (rxFifoObj[4] & (
      +                          1UL << (0x4U))) ? CAN_FRAME_EXT : CAN_FRAME_STD;
  6328   00466E  EE20 F004          	lfsr	2,4
  6329   004672  5004               	movf	CAN1_MessageReadFromFifo@rxFifoObj^(0+1280),w,c
  6330   004674  26D9               	addwf	fsr2l,f,c
  6331   004676  5005               	movf	(CAN1_MessageReadFromFifo@rxFifoObj+1)^(0+1280),w,c
  6332   004678  22DA               	addwfc	fsr2h,f,c
  6333   00467A  B8DF               	btfsc	indf2,4,c
  6334   00467C  EF42  F023         	goto	u2921
  6335   004680  EF46  F023         	goto	u2920
  6336   004684                     u2921:
  6337   004684  6A08               	clrf	??_CAN1_MessageReadFromFifo^(0+1280),c
  6338   004686  2A08               	incf	??_CAN1_MessageReadFromFifo^(0+1280),f,c
  6339   004688  EF47  F023         	goto	u2938
  6340   00468C                     u2920:
  6341   00468C  6A08               	clrf	??_CAN1_MessageReadFromFifo^(0+1280),c
  6342   00468E                     u2938:
  6343   00468E  EE20 F004          	lfsr	2,4
  6344   004692  5006               	movf	CAN1_MessageReadFromFifo@rxCanMsg^(0+1280),w,c
  6345   004694  26D9               	addwf	fsr2l,f,c
  6346   004696  5007               	movf	(CAN1_MessageReadFromFifo@rxCanMsg+1)^(0+1280),w,c
  6347   004698  22DA               	addwfc	fsr2h,f,c
  6348   00469A  50DF               	movf	223,w,c
  6349   00469C  1808               	xorwf	??_CAN1_MessageReadFromFifo^(0+1280),w,c
  6350   00469E  0BFE               	andlw	-2
  6351   0046A0  1808               	xorwf	??_CAN1_MessageReadFromFifo^(0+1280),w,c
  6352   0046A2  6EDF               	movwf	223,c
  6353                           
  6354                           ;mcc_generated_files/can/src/can1.c: 356:     rxCanMsg->field.frameType = (rxFifoObj[4] 
      +                          & (1UL << (0x5U))) ? CAN_FRAME_RTR : CAN_FRAME_DATA;
  6355   0046A4  EE20 F004          	lfsr	2,4
  6356   0046A8  5004               	movf	CAN1_MessageReadFromFifo@rxFifoObj^(0+1280),w,c
  6357   0046AA  26D9               	addwf	fsr2l,f,c
  6358   0046AC  5005               	movf	(CAN1_MessageReadFromFifo@rxFifoObj+1)^(0+1280),w,c
  6359   0046AE  22DA               	addwfc	fsr2h,f,c
  6360   0046B0  BADF               	btfsc	indf2,5,c
  6361   0046B2  EF5D  F023         	goto	u2941
  6362   0046B6  EF61  F023         	goto	u2940
  6363   0046BA                     u2941:
  6364   0046BA  6A08               	clrf	??_CAN1_MessageReadFromFifo^(0+1280),c
  6365   0046BC  2A08               	incf	??_CAN1_MessageReadFromFifo^(0+1280),f,c
  6366   0046BE  EF62  F023         	goto	u2958
  6367   0046C2                     u2940:
  6368   0046C2  6A08               	clrf	??_CAN1_MessageReadFromFifo^(0+1280),c
  6369   0046C4                     u2958:
  6370   0046C4  EE20 F004          	lfsr	2,4
  6371   0046C8  5006               	movf	CAN1_MessageReadFromFifo@rxCanMsg^(0+1280),w,c
  6372   0046CA  26D9               	addwf	fsr2l,f,c
  6373   0046CC  5007               	movf	(CAN1_MessageReadFromFifo@rxCanMsg+1)^(0+1280),w,c
  6374   0046CE  22DA               	addwfc	fsr2h,f,c
  6375   0046D0  4608               	rlncf	??_CAN1_MessageReadFromFifo^(0+1280),f,c
  6376   0046D2  50DF               	movf	223,w,c
  6377   0046D4  1808               	xorwf	??_CAN1_MessageReadFromFifo^(0+1280),w,c
  6378   0046D6  0BFD               	andlw	-3
  6379   0046D8  1808               	xorwf	??_CAN1_MessageReadFromFifo^(0+1280),w,c
  6380   0046DA  6EDF               	movwf	223,c
  6381                           
  6382                           ;mcc_generated_files/can/src/can1.c: 357:     rxCanMsg->field.brs = (rxFifoObj[4] & (1UL
      +                           << (0x6U))) ? CAN_BRS_MODE : CAN_NON_BRS_MODE;
  6383   0046DC  EE20 F004          	lfsr	2,4
  6384   0046E0  5004               	movf	CAN1_MessageReadFromFifo@rxFifoObj^(0+1280),w,c
  6385   0046E2  26D9               	addwf	fsr2l,f,c
  6386   0046E4  5005               	movf	(CAN1_MessageReadFromFifo@rxFifoObj+1)^(0+1280),w,c
  6387   0046E6  22DA               	addwfc	fsr2h,f,c
  6388   0046E8  BCDF               	btfsc	indf2,6,c
  6389   0046EA  EF79  F023         	goto	u2961
  6390   0046EE  EF7D  F023         	goto	u2960
  6391   0046F2                     u2961:
  6392   0046F2  6A08               	clrf	??_CAN1_MessageReadFromFifo^(0+1280),c
  6393   0046F4  2A08               	incf	??_CAN1_MessageReadFromFifo^(0+1280),f,c
  6394   0046F6  EF7E  F023         	goto	u2978
  6395   0046FA                     u2960:
  6396   0046FA  6A08               	clrf	??_CAN1_MessageReadFromFifo^(0+1280),c
  6397   0046FC                     u2978:
  6398   0046FC  EE20 F004          	lfsr	2,4
  6399   004700  5006               	movf	CAN1_MessageReadFromFifo@rxCanMsg^(0+1280),w,c
  6400   004702  26D9               	addwf	fsr2l,f,c
  6401   004704  5007               	movf	(CAN1_MessageReadFromFifo@rxCanMsg+1)^(0+1280),w,c
  6402   004706  22DA               	addwfc	fsr2h,f,c
  6403   004708  3208               	rrcf	??_CAN1_MessageReadFromFifo^(0+1280),f,c
  6404   00470A  3208               	rrcf	??_CAN1_MessageReadFromFifo^(0+1280),f,c
  6405   00470C  50DF               	movf	223,w,c
  6406   00470E  1808               	xorwf	??_CAN1_MessageReadFromFifo^(0+1280),w,c
  6407   004710  0B7F               	andlw	-129
  6408   004712  1808               	xorwf	??_CAN1_MessageReadFromFifo^(0+1280),w,c
  6409   004714  6EDF               	movwf	223,c
  6410                           
  6411                           ;mcc_generated_files/can/src/can1.c: 358:     rxCanMsg->field.formatType = (rxFifoObj[4]
      +                           & (1UL << (0x7U))) ? CAN_FRAME_EXT : CAN_FRAME_STD;
  6412   004716  EE20 F004          	lfsr	2,4
  6413   00471A  5004               	movf	CAN1_MessageReadFromFifo@rxFifoObj^(0+1280),w,c
  6414   00471C  26D9               	addwf	fsr2l,f,c
  6415   00471E  5005               	movf	(CAN1_MessageReadFromFifo@rxFifoObj+1)^(0+1280),w,c
  6416   004720  22DA               	addwfc	fsr2h,f,c
  6417   004722  BEDF               	btfsc	indf2,7,c
  6418   004724  EF96  F023         	goto	u2981
  6419   004728  EF9A  F023         	goto	u2980
  6420   00472C                     u2981:
  6421   00472C  6A08               	clrf	??_CAN1_MessageReadFromFifo^(0+1280),c
  6422   00472E  2A08               	incf	??_CAN1_MessageReadFromFifo^(0+1280),f,c
  6423   004730  EF9B  F023         	goto	u2998
  6424   004734                     u2980:
  6425   004734  6A08               	clrf	??_CAN1_MessageReadFromFifo^(0+1280),c
  6426   004736                     u2998:
  6427   004736  EE20 F004          	lfsr	2,4
  6428   00473A  5006               	movf	CAN1_MessageReadFromFifo@rxCanMsg^(0+1280),w,c
  6429   00473C  26D9               	addwf	fsr2l,f,c
  6430   00473E  5007               	movf	(CAN1_MessageReadFromFifo@rxCanMsg+1)^(0+1280),w,c
  6431   004740  22DA               	addwfc	fsr2h,f,c
  6432   004742  3A08               	swapf	??_CAN1_MessageReadFromFifo^(0+1280),f,c
  6433   004744  4608               	rlncf	??_CAN1_MessageReadFromFifo^(0+1280),f,c
  6434   004746  4608               	rlncf	??_CAN1_MessageReadFromFifo^(0+1280),f,c
  6435   004748  50DF               	movf	223,w,c
  6436   00474A  1808               	xorwf	??_CAN1_MessageReadFromFifo^(0+1280),w,c
  6437   00474C  0BBF               	andlw	-65
  6438   00474E  1808               	xorwf	??_CAN1_MessageReadFromFifo^(0+1280),w,c
  6439   004750  6EDF               	movwf	223,c
  6440                           
  6441                           ;mcc_generated_files/can/src/can1.c: 360:     msgId = (uint32_t)(rxFifoObj[1] & (0x7U));
  6442   004752  EE20 F001          	lfsr	2,1
  6443   004756  5004               	movf	CAN1_MessageReadFromFifo@rxFifoObj^(0+1280),w,c
  6444   004758  26D9               	addwf	fsr2l,f,c
  6445   00475A  5005               	movf	(CAN1_MessageReadFromFifo@rxFifoObj+1)^(0+1280),w,c
  6446   00475C  22DA               	addwfc	fsr2h,f,c
  6447   00475E  50DF               	movf	indf2,w,c
  6448   004760  6E08               	movwf	??_CAN1_MessageReadFromFifo^(0+1280),c
  6449   004762  0E07               	movlw	7
  6450   004764  1608               	andwf	??_CAN1_MessageReadFromFifo^(0+1280),f,c
  6451   004766  5008               	movf	??_CAN1_MessageReadFromFifo^(0+1280),w,c
  6452   004768  6E0A               	movwf	CAN1_MessageReadFromFifo@msgId^(0+1280),c
  6453   00476A  6A0B               	clrf	(CAN1_MessageReadFromFifo@msgId+1)^(0+1280),c
  6454   00476C  6A0C               	clrf	(CAN1_MessageReadFromFifo@msgId+2)^(0+1280),c
  6455   00476E  6A0D               	clrf	(CAN1_MessageReadFromFifo@msgId+3)^(0+1280),c
  6456   004770                     
  6457                           ;mcc_generated_files/can/src/can1.c: 361:     msgId <<= (0x8U);
  6458   004770  C50C  F50D         	movff	CAN1_MessageReadFromFifo@msgId+2,CAN1_MessageReadFromFifo@msgId+3
  6459   004774  C50B  F50C         	movff	CAN1_MessageReadFromFifo@msgId+1,CAN1_MessageReadFromFifo@msgId+2
  6460   004778  C50A  F50B         	movff	CAN1_MessageReadFromFifo@msgId,CAN1_MessageReadFromFifo@msgId+1
  6461   00477C  6A0A               	clrf	CAN1_MessageReadFromFifo@msgId^(0+1280),c
  6462   00477E                     
  6463                           ;mcc_generated_files/can/src/can1.c: 363:     msgId |= (uint32_t)(rxFifoObj[0] & (0xFFU)
      +                          );
  6464   00477E  C504  F4D9         	movff	CAN1_MessageReadFromFifo@rxFifoObj,fsr2l
  6465   004782  C505  F4DA         	movff	CAN1_MessageReadFromFifo@rxFifoObj+1,fsr2h
  6466   004786  50DF               	movf	indf2,w,c
  6467   004788  6E08               	movwf	??_CAN1_MessageReadFromFifo^(0+1280),c
  6468   00478A  5008               	movf	??_CAN1_MessageReadFromFifo^(0+1280),w,c
  6469   00478C  120A               	iorwf	CAN1_MessageReadFromFifo@msgId^(0+1280),f,c
  6470   00478E                     
  6471                           ;mcc_generated_files/can/src/can1.c: 365:     if ((uint8_t)CAN_FRAME_EXT == rxCanMsg->fi
      +                          eld.idType)
  6472   00478E  EE20 F004          	lfsr	2,4
  6473   004792  5006               	movf	CAN1_MessageReadFromFifo@rxCanMsg^(0+1280),w,c
  6474   004794  26D9               	addwf	fsr2l,f,c
  6475   004796  5007               	movf	(CAN1_MessageReadFromFifo@rxCanMsg+1)^(0+1280),w,c
  6476   004798  22DA               	addwfc	fsr2h,f,c
  6477   00479A  A0DF               	btfss	indf2,0,c
  6478   00479C  EFD2  F023         	goto	u3001
  6479   0047A0  EFD4  F023         	goto	u3000
  6480   0047A4                     u3001:
  6481   0047A4  EF15  F024         	goto	l3400
  6482   0047A8                     u3000:
  6483   0047A8                     
  6484                           ;mcc_generated_files/can/src/can1.c: 366:     {;mcc_generated_files/can/src/can1.c: 369:
      +                                   msgId <<= (0x5U);
  6485   0047A8  0E05               	movlw	5
  6486   0047AA                     u3015:
  6487   0047AA  90D8               	bcf	status,0,c
  6488   0047AC  360A               	rlcf	CAN1_MessageReadFromFifo@msgId^(0+1280),f,c
  6489   0047AE  360B               	rlcf	(CAN1_MessageReadFromFifo@msgId+1)^(0+1280),f,c
  6490   0047B0  360C               	rlcf	(CAN1_MessageReadFromFifo@msgId+2)^(0+1280),f,c
  6491   0047B2  360D               	rlcf	(CAN1_MessageReadFromFifo@msgId+3)^(0+1280),f,c
  6492   0047B4  2EE8               	decfsz	wreg,f,c
  6493   0047B6  EFD5  F023         	goto	u3015
  6494   0047BA                     
  6495                           ;mcc_generated_files/can/src/can1.c: 370:         msgId |= (uint32_t)(rxFifoObj[3] & (0x
      +                          1FU));
  6496   0047BA  EE20 F003          	lfsr	2,3
  6497   0047BE  5004               	movf	CAN1_MessageReadFromFifo@rxFifoObj^(0+1280),w,c
  6498   0047C0  26D9               	addwf	fsr2l,f,c
  6499   0047C2  5005               	movf	(CAN1_MessageReadFromFifo@rxFifoObj+1)^(0+1280),w,c
  6500   0047C4  22DA               	addwfc	fsr2h,f,c
  6501   0047C6  50DF               	movf	indf2,w,c
  6502   0047C8  6E08               	movwf	??_CAN1_MessageReadFromFifo^(0+1280),c
  6503   0047CA  0E1F               	movlw	31
  6504   0047CC  1608               	andwf	??_CAN1_MessageReadFromFifo^(0+1280),f,c
  6505   0047CE  5008               	movf	??_CAN1_MessageReadFromFifo^(0+1280),w,c
  6506   0047D0  120A               	iorwf	CAN1_MessageReadFromFifo@msgId^(0+1280),f,c
  6507   0047D2                     
  6508                           ;mcc_generated_files/can/src/can1.c: 372:         msgId <<= (0x8U);
  6509   0047D2  C50C  F50D         	movff	CAN1_MessageReadFromFifo@msgId+2,CAN1_MessageReadFromFifo@msgId+3
  6510   0047D6  C50B  F50C         	movff	CAN1_MessageReadFromFifo@msgId+1,CAN1_MessageReadFromFifo@msgId+2
  6511   0047DA  C50A  F50B         	movff	CAN1_MessageReadFromFifo@msgId,CAN1_MessageReadFromFifo@msgId+1
  6512   0047DE  6A0A               	clrf	CAN1_MessageReadFromFifo@msgId^(0+1280),c
  6513   0047E0                     
  6514                           ;mcc_generated_files/can/src/can1.c: 373:         msgId |= (uint32_t)rxFifoObj[2];
  6515   0047E0  EE20 F002          	lfsr	2,2
  6516   0047E4  5004               	movf	CAN1_MessageReadFromFifo@rxFifoObj^(0+1280),w,c
  6517   0047E6  26D9               	addwf	fsr2l,f,c
  6518   0047E8  5005               	movf	(CAN1_MessageReadFromFifo@rxFifoObj+1)^(0+1280),w,c
  6519   0047EA  22DA               	addwfc	fsr2h,f,c
  6520   0047EC  50DF               	movf	indf2,w,c
  6521   0047EE  6E08               	movwf	??_CAN1_MessageReadFromFifo^(0+1280),c
  6522   0047F0  5008               	movf	??_CAN1_MessageReadFromFifo^(0+1280),w,c
  6523   0047F2  120A               	iorwf	CAN1_MessageReadFromFifo@msgId^(0+1280),f,c
  6524   0047F4                     
  6525                           ;mcc_generated_files/can/src/can1.c: 375:         msgId <<= (0x5U);
  6526   0047F4  0E05               	movlw	5
  6527   0047F6                     u3025:
  6528   0047F6  90D8               	bcf	status,0,c
  6529   0047F8  360A               	rlcf	CAN1_MessageReadFromFifo@msgId^(0+1280),f,c
  6530   0047FA  360B               	rlcf	(CAN1_MessageReadFromFifo@msgId+1)^(0+1280),f,c
  6531   0047FC  360C               	rlcf	(CAN1_MessageReadFromFifo@msgId+2)^(0+1280),f,c
  6532   0047FE  360D               	rlcf	(CAN1_MessageReadFromFifo@msgId+3)^(0+1280),f,c
  6533   004800  2EE8               	decfsz	wreg,f,c
  6534   004802  EFFB  F023         	goto	u3025
  6535   004806                     
  6536                           ;mcc_generated_files/can/src/can1.c: 376:         msgId |= (uint32_t)((rxFifoObj[1] & (0
      +                          xF8U)) >> (0x3U));
  6537   004806  EE20 F001          	lfsr	2,1
  6538   00480A  5004               	movf	CAN1_MessageReadFromFifo@rxFifoObj^(0+1280),w,c
  6539   00480C  26D9               	addwf	fsr2l,f,c
  6540   00480E  5005               	movf	(CAN1_MessageReadFromFifo@rxFifoObj+1)^(0+1280),w,c
  6541   004810  22DA               	addwfc	fsr2h,f,c
  6542   004812  50DF               	movf	indf2,w,c
  6543   004814  6E08               	movwf	??_CAN1_MessageReadFromFifo^(0+1280),c
  6544   004816  90D8               	bcf	status,0,c
  6545   004818  3208               	rrcf	??_CAN1_MessageReadFromFifo^(0+1280),f,c
  6546   00481A  90D8               	bcf	status,0,c
  6547   00481C  3208               	rrcf	??_CAN1_MessageReadFromFifo^(0+1280),f,c
  6548   00481E  90D8               	bcf	status,0,c
  6549   004820  3208               	rrcf	??_CAN1_MessageReadFromFifo^(0+1280),f,c
  6550   004822  0E1F               	movlw	31
  6551   004824  1608               	andwf	??_CAN1_MessageReadFromFifo^(0+1280),f,c
  6552   004826  5008               	movf	??_CAN1_MessageReadFromFifo^(0+1280),w,c
  6553   004828  120A               	iorwf	CAN1_MessageReadFromFifo@msgId^(0+1280),f,c
  6554   00482A                     l3400:
  6555                           
  6556                           ;mcc_generated_files/can/src/can1.c: 379:     rxCanMsg->msgId = msgId;
  6557   00482A  C506  F4D9         	movff	CAN1_MessageReadFromFifo@rxCanMsg,fsr2l
  6558   00482E  C507  F4DA         	movff	CAN1_MessageReadFromFifo@rxCanMsg+1,fsr2h
  6559   004832  C50A  F4DE         	movff	CAN1_MessageReadFromFifo@msgId,postinc2
  6560   004836  C50B  F4DE         	movff	CAN1_MessageReadFromFifo@msgId+1,postinc2
  6561   00483A  C50C  F4DE         	movff	CAN1_MessageReadFromFifo@msgId+2,postinc2
  6562   00483E  C50D  F4DE         	movff	CAN1_MessageReadFromFifo@msgId+3,postinc2
  6563   004842                     
  6564                           ;mcc_generated_files/can/src/can1.c: 382:     for(index = 0; index < CAN1_DlcToDataBytes
      +                          Get(rxCanMsg->field.dlc); index++)
  6565   004842  0E00               	movlw	0
  6566   004844  6E0E               	movwf	CAN1_MessageReadFromFifo@index^(0+1280),c
  6567   004846  EF3A  F024         	goto	l3408
  6568   00484A                     l3404:
  6569                           
  6570                           ;mcc_generated_files/can/src/can1.c: 383:     {;mcc_generated_files/can/src/can1.c: 384:
      +                                   *(rxMsgData + index) = rxFifoObj[8U + index];
  6571   00484A  500E               	movf	CAN1_MessageReadFromFifo@index^(0+1280),w,c
  6572   00484C  2404               	addwf	CAN1_MessageReadFromFifo@rxFifoObj^(0+1280),w,c
  6573   00484E  6E08               	movwf	??_CAN1_MessageReadFromFifo^(0+1280),c
  6574   004850  0E00               	movlw	0
  6575   004852  2005               	addwfc	(CAN1_MessageReadFromFifo@rxFifoObj+1)^(0+1280),w,c
  6576   004854  6E09               	movwf	(??_CAN1_MessageReadFromFifo+1)^(0+1280),c
  6577   004856  0E08               	movlw	8
  6578   004858  2408               	addwf	??_CAN1_MessageReadFromFifo^(0+1280),w,c
  6579   00485A  6ED9               	movwf	fsr2l,c
  6580   00485C  0E00               	movlw	0
  6581   00485E  2009               	addwfc	(??_CAN1_MessageReadFromFifo+1)^(0+1280),w,c
  6582   004860  6EDA               	movwf	fsr2h,c
  6583   004862  0E86               	movlw	low _rxMsgData
  6584   004864  240E               	addwf	CAN1_MessageReadFromFifo@index^(0+1280),w,c
  6585   004866  6EE1               	movwf	fsr1l,c
  6586   004868  6AE2               	clrf	fsr1h,c
  6587   00486A  0E05               	movlw	high _rxMsgData
  6588   00486C  22E2               	addwfc	fsr1h,f,c
  6589   00486E  C4DF F4E7          	movff	indf2,indf1
  6590   004872                     
  6591                           ;mcc_generated_files/can/src/can1.c: 385:     }
  6592   004872  2A0E               	incf	CAN1_MessageReadFromFifo@index^(0+1280),f,c
  6593   004874                     l3408:
  6594   004874  EE20 F004          	lfsr	2,4
  6595   004878  5006               	movf	CAN1_MessageReadFromFifo@rxCanMsg^(0+1280),w,c
  6596   00487A  26D9               	addwf	fsr2l,f,c
  6597   00487C  5007               	movf	(CAN1_MessageReadFromFifo@rxCanMsg+1)^(0+1280),w,c
  6598   00487E  22DA               	addwfc	fsr2h,f,c
  6599   004880  30DF               	rrcf	223,w,c
  6600   004882  32E8               	rrcf	wreg,f,c
  6601   004884  0B0F               	andlw	15
  6602   004886  EC00  F02D         	call	_CAN1_DlcToDataBytesGet
  6603   00488A  6E08               	movwf	??_CAN1_MessageReadFromFifo^(0+1280),c
  6604   00488C  5008               	movf	??_CAN1_MessageReadFromFifo^(0+1280),w,c
  6605   00488E  5C0E               	subwf	CAN1_MessageReadFromFifo@index^(0+1280),w,c
  6606   004890  A0D8               	btfss	status,0,c
  6607   004892  EF4D  F024         	goto	u3031
  6608   004896  EF4F  F024         	goto	u3030
  6609   00489A                     u3031:
  6610   00489A  EF25  F024         	goto	l3404
  6611   00489E                     u3030:
  6612   00489E                     
  6613                           ;mcc_generated_files/can/src/can1.c: 387:     rxCanMsg->data = rxMsgData;
  6614   00489E  EE20 F005          	lfsr	2,5
  6615   0048A2  5006               	movf	CAN1_MessageReadFromFifo@rxCanMsg^(0+1280),w,c
  6616   0048A4  26D9               	addwf	fsr2l,f,c
  6617   0048A6  5007               	movf	(CAN1_MessageReadFromFifo@rxCanMsg+1)^(0+1280),w,c
  6618   0048A8  22DA               	addwfc	fsr2h,f,c
  6619   0048AA  0E86               	movlw	low _rxMsgData
  6620   0048AC  6EDE               	movwf	postinc2,c
  6621   0048AE  0E05               	movlw	high _rxMsgData
  6622   0048B0  6EDD               	movwf	postdec2,c
  6623   0048B2  0012               	return		;funcret
  6624   0048B4                     __end_of_CAN1_MessageReadFromFifo:
  6625                           	callstack 0
  6626                           
  6627 ;; *************** function _CAN1_DlcToDataBytesGet *****************
  6628 ;; Defined at:
  6629 ;;		line 159 in file "mcc_generated_files/can/src/can1.c"
  6630 ;; Parameters:    Size  Location     Type
  6631 ;;  dlc             1    wreg     const enum E22681
  6632 ;; Auto vars:     Size  Location     Type
  6633 ;;  dlc             1    2[COMRAM] const enum E22681
  6634 ;; Return value:  Size  Location     Type
  6635 ;;                  1    wreg      unsigned char 
  6636 ;; Registers used:
  6637 ;;		wreg, status,2, status,0, tblptrl, tblptrh, tblptru
  6638 ;; Tracked objects:
  6639 ;;		On entry : 0/0
  6640 ;;		On exit  : 0/0
  6641 ;;		Unchanged: 0/0
  6642 ;; Data sizes:     COMRAM   BANK5   BANK6   BANK7   BANK8   BANK9  BANK10  BANK11  BANK12  BANK13  BANK14  BANK15  BANK1
      +6  BANK17  BANK18  BANK19  BANK20  BANK21  BANK22  BANK23  BANK24  BANK25  BANK26  BANK27  BANK28  BANK29  BANK30  BANK3
      +1  BANK32  BANK33  BANK34  BANK35  BANK36  BANK37  BANK38  BANK39  BANK40  BANK41  BANK42  BANK43  BANK44  BANK45  BANK4
      +6  BANK47  BANK48  BANK49  BANK50  BANK51  BANK52  BANK53  BANK54
  6643 ;;      Params:         0       0       0       0       0       0       0       0       0       0       0       0       
      +0       0       0       0       0       0       0       0       0       0       0       0       0       0       0       
      +0       0       0       0       0       0       0       0       0       0       0       0       0       0       0       
      +0       0       0       0       0       0       0       0       0
  6644 ;;      Locals:         1       0       0       0       0       0       0       0       0       0       0       0       
      +0       0       0       0       0       0       0       0       0       0       0       0       0       0       0       
      +0       0       0       0       0       0       0       0       0       0       0       0       0       0       0       
      +0       0       0       0       0       0       0       0       0
  6645 ;;      Temps:          0       0       0       0       0       0       0       0       0       0       0       0       
      +0       0       0       0       0       0       0       0       0       0       0       0       0       0       0       
      +0       0       0       0       0       0       0       0       0       0       0       0       0       0       0       
      +0       0       0       0       0       0       0       0       0
  6646 ;;      Totals:         1       0       0       0       0       0       0       0       0       0       0       0       
      +0       0       0       0       0       0       0       0       0       0       0       0       0       0       0       
      +0       0       0       0       0       0       0       0       0       0       0       0       0       0       0       
      +0       0       0       0       0       0       0       0       0
  6647 ;;Total ram usage:        1 bytes
  6648 ;; Hardware stack levels used: 1
  6649 ;; Hardware stack levels required when called: 3
  6650 ;; This function calls:
  6651 ;;		Nothing
  6652 ;; This function is called by:
  6653 ;;		_CAN1_MessageWriteToFifo
  6654 ;;		_CAN1_MessageReadFromFifo
  6655 ;;		_CAN1_PLSIZEToPayloadBytesGet
  6656 ;; This function uses a non-reentrant model
  6657 ;;
  6658                           
  6659                           	psect	text44
  6660   005A00                     __ptext44:
  6661                           	callstack 0
  6662   005A00                     _CAN1_DlcToDataBytesGet:
  6663                           	callstack 121
  6664                           
  6665                           ;incstack = 0
  6666                           ;CAN1_DlcToDataBytesGet@dlc stored from wreg
  6667   005A00  6E03               	movwf	CAN1_DlcToDataBytesGet@dlc^(0+1280),c
  6668   005A02                     
  6669                           ;mcc_generated_files/can/src/can1.c: 159: static uint8_t CAN1_DlcToDataBytesGet(const en
      +                          um CAN_DLC dlc);mcc_generated_files/can/src/can1.c: 160: {;mcc_generated_files/can/src/c
      +                          an1.c: 161:     static const uint8_t dlcByteSize[] = {0U, 1U, 2U, 3U, 4U, 5U, 6U, 7U, 8U
      +                          };;mcc_generated_files/can/src/can1.c: 162:     return dlcByteSize[dlc];
  6670   005A02  0E7C               	movlw	low CAN1_DlcToDataBytesGet@dlcByteSize
  6671   005A04  2403               	addwf	CAN1_DlcToDataBytesGet@dlc^(0+1280),w,c
  6672   005A06  6EF6               	movwf	tblptrl,c
  6673   005A08  6AF7               	clrf	tblptrh,c
  6674   005A0A  0E40               	movlw	high CAN1_DlcToDataBytesGet@dlcByteSize
  6675   005A0C  22F7               	addwfc	tblptrh,f,c
  6676   005A0E                     	if	1	;There are 3 active tblptr bytes
  6677   005A0E  6AF8               	clrf	tblptru,c
  6678   005A10  0E00               	movlw	low (__mediumconst shr (0+16))
  6679   005A12  22F8               	addwfc	tblptru,f,c
  6680   005A14                     	endif
  6681   005A14  0008               	tblrd		*
  6682   005A16  50F5               	movf	tablat,w,c
  6683   005A18  0012               	return		;funcret
  6684   005A1A                     __end_of_CAN1_DlcToDataBytesGet:
  6685                           	callstack 0
  6686                           
  6687 ;; *************** function _CAN1_GetRxFifoStatus *****************
  6688 ;; Defined at:
  6689 ;;		line 325 in file "mcc_generated_files/can/src/can1.c"
  6690 ;; Parameters:    Size  Location     Type
  6691 ;;  validChannel    1    wreg     unsigned char 
  6692 ;; Auto vars:     Size  Location     Type
  6693 ;;  validChannel    1    2[COMRAM] unsigned char 
  6694 ;; Return value:  Size  Location     Type
  6695 ;;                  1    wreg      unsigned char 
  6696 ;; Registers used:
  6697 ;;		wreg, fsr2l, fsr2h, status,2, status,0, prodl, prodh
  6698 ;; Tracked objects:
  6699 ;;		On entry : 0/0
  6700 ;;		On exit  : 0/0
  6701 ;;		Unchanged: 0/0
  6702 ;; Data sizes:     COMRAM   BANK5   BANK6   BANK7   BANK8   BANK9  BANK10  BANK11  BANK12  BANK13  BANK14  BANK15  BANK1
      +6  BANK17  BANK18  BANK19  BANK20  BANK21  BANK22  BANK23  BANK24  BANK25  BANK26  BANK27  BANK28  BANK29  BANK30  BANK3
      +1  BANK32  BANK33  BANK34  BANK35  BANK36  BANK37  BANK38  BANK39  BANK40  BANK41  BANK42  BANK43  BANK44  BANK45  BANK4
      +6  BANK47  BANK48  BANK49  BANK50  BANK51  BANK52  BANK53  BANK54
  6703 ;;      Params:         0       0       0       0       0       0       0       0       0       0       0       0       
      +0       0       0       0       0       0       0       0       0       0       0       0       0       0       0       
      +0       0       0       0       0       0       0       0       0       0       0       0       0       0       0       
      +0       0       0       0       0       0       0       0       0
  6704 ;;      Locals:         1       0       0       0       0       0       0       0       0       0       0       0       
      +0       0       0       0       0       0       0       0       0       0       0       0       0       0       0       
      +0       0       0       0       0       0       0       0       0       0       0       0       0       0       0       
      +0       0       0       0       0       0       0       0       0
  6705 ;;      Temps:          0       0       0       0       0       0       0       0       0       0       0       0       
      +0       0       0       0       0       0       0       0       0       0       0       0       0       0       0       
      +0       0       0       0       0       0       0       0       0       0       0       0       0       0       0       
      +0       0       0       0       0       0       0       0       0
  6706 ;;      Totals:         1       0       0       0       0       0       0       0       0       0       0       0       
      +0       0       0       0       0       0       0       0       0       0       0       0       0       0       0       
      +0       0       0       0       0       0       0       0       0       0       0       0       0       0       0       
      +0       0       0       0       0       0       0       0       0
  6707 ;;Total ram usage:        1 bytes
  6708 ;; Hardware stack levels used: 1
  6709 ;; Hardware stack levels required when called: 3
  6710 ;; This function calls:
  6711 ;;		Nothing
  6712 ;; This function is called by:
  6713 ;;		_CAN1_ReceiveFromFiFo
  6714 ;;		_CAN1_ReceivedMessageCountGet
  6715 ;;		_CAN1_ReceiveFIFOStatusGet
  6716 ;; This function uses a non-reentrant model
  6717 ;;
  6718                           
  6719                           	psect	text45
  6720   005A32                     __ptext45:
  6721                           	callstack 0
  6722   005A32                     _CAN1_GetRxFifoStatus:
  6723                           	callstack 122
  6724                           
  6725                           ;incstack = 0
  6726                           ;CAN1_GetRxFifoStatus@validChannel stored from wreg
  6727   005A32  6E03               	movwf	CAN1_GetRxFifoStatus@validChannel^(0+1280),c
  6728   005A34                     
  6729                           ;mcc_generated_files/can/src/can1.c: 325: static uint8_t CAN1_GetRxFifoStatus(uint8_t va
      +                          lidChannel);mcc_generated_files/can/src/can1.c: 326: {;mcc_generated_files/can/src/can1.
      +                          c: 327:     return (FIFO[validChannel].STAL & ((uint8_t)CAN_RX_MSG_AVAILABLE | (uint8_t)
      +                          CAN_RX_MSG_OVERFLOW));
  6730   005A34  5003               	movf	CAN1_GetRxFifoStatus@validChannel^(0+1280),w,c
  6731   005A36  0D0C               	mullw	12
  6732   005A38  0E54               	movlw	84
  6733   005A3A  24F3               	addwf	243,w,c
  6734   005A3C  6ED9               	movwf	fsr2l,c
  6735   005A3E  0E01               	movlw	1
  6736   005A40  20F4               	addwfc	prodh,w,c
  6737   005A42  6EDA               	movwf	fsr2h,c
  6738   005A44  50DF               	movf	indf2,w,c
  6739   005A46  0B09               	andlw	9
  6740   005A48  0012               	return		;funcret
  6741   005A4A                     __end_of_CAN1_GetRxFifoStatus:
  6742                           	callstack 0
  6743                           
  6744 ;; *************** function _CAN1_GetRxFifoDepth *****************
  6745 ;; Defined at:
  6746 ;;		line 336 in file "mcc_generated_files/can/src/can1.c"
  6747 ;; Parameters:    Size  Location     Type
  6748 ;;  validChannel    1    wreg     unsigned char 
  6749 ;; Auto vars:     Size  Location     Type
  6750 ;;  validChannel    1    3[COMRAM] unsigned char 
  6751 ;; Return value:  Size  Location     Type
  6752 ;;                  1    wreg      unsigned char 
  6753 ;; Registers used:
  6754 ;;		wreg, fsr2l, fsr2h, status,2, status,0, prodl, prodh
  6755 ;; Tracked objects:
  6756 ;;		On entry : 0/0
  6757 ;;		On exit  : 0/0
  6758 ;;		Unchanged: 0/0
  6759 ;; Data sizes:     COMRAM   BANK5   BANK6   BANK7   BANK8   BANK9  BANK10  BANK11  BANK12  BANK13  BANK14  BANK15  BANK1
      +6  BANK17  BANK18  BANK19  BANK20  BANK21  BANK22  BANK23  BANK24  BANK25  BANK26  BANK27  BANK28  BANK29  BANK30  BANK3
      +1  BANK32  BANK33  BANK34  BANK35  BANK36  BANK37  BANK38  BANK39  BANK40  BANK41  BANK42  BANK43  BANK44  BANK45  BANK4
      +6  BANK47  BANK48  BANK49  BANK50  BANK51  BANK52  BANK53  BANK54
  6760 ;;      Params:         0       0       0       0       0       0       0       0       0       0       0       0       
      +0       0       0       0       0       0       0       0       0       0       0       0       0       0       0       
      +0       0       0       0       0       0       0       0       0       0       0       0       0       0       0       
      +0       0       0       0       0       0       0       0       0
  6761 ;;      Locals:         1       0       0       0       0       0       0       0       0       0       0       0       
      +0       0       0       0       0       0       0       0       0       0       0       0       0       0       0       
      +0       0       0       0       0       0       0       0       0       0       0       0       0       0       0       
      +0       0       0       0       0       0       0       0       0
  6762 ;;      Temps:          1       0       0       0       0       0       0       0       0       0       0       0       
      +0       0       0       0       0       0       0       0       0       0       0       0       0       0       0       
      +0       0       0       0       0       0       0       0       0       0       0       0       0       0       0       
      +0       0       0       0       0       0       0       0       0
  6763 ;;      Totals:         2       0       0       0       0       0       0       0       0       0       0       0       
      +0       0       0       0       0       0       0       0       0       0       0       0       0       0       0       
      +0       0       0       0       0       0       0       0       0       0       0       0       0       0       0       
      +0       0       0       0       0       0       0       0       0
  6764 ;;Total ram usage:        2 bytes
  6765 ;; Hardware stack levels used: 1
  6766 ;; Hardware stack levels required when called: 3
  6767 ;; This function calls:
  6768 ;;		Nothing
  6769 ;; This function is called by:
  6770 ;;		_CAN1_ReceiveFromFiFo
  6771 ;;		_CAN1_ReceivedMessageCountGet
  6772 ;; This function uses a non-reentrant model
  6773 ;;
  6774                           
  6775                           	psect	text46
  6776   0059AC                     __ptext46:
  6777                           	callstack 0
  6778   0059AC                     _CAN1_GetRxFifoDepth:
  6779                           	callstack 122
  6780                           
  6781                           ;incstack = 0
  6782                           ;CAN1_GetRxFifoDepth@validChannel stored from wreg
  6783   0059AC  6E04               	movwf	CAN1_GetRxFifoDepth@validChannel^(0+1280),c
  6784   0059AE                     
  6785                           ;mcc_generated_files/can/src/can1.c: 336: static uint8_t CAN1_GetRxFifoDepth(uint8_t val
      +                          idChannel);mcc_generated_files/can/src/can1.c: 337: {;mcc_generated_files/can/src/can1.c
      +                          : 338:     return (1U + (FIFO[validChannel].CONT & 0x1F));
  6786   0059AE  5004               	movf	CAN1_GetRxFifoDepth@validChannel^(0+1280),w,c
  6787   0059B0  0D0C               	mullw	12
  6788   0059B2  0E53               	movlw	83
  6789   0059B4  24F3               	addwf	243,w,c
  6790   0059B6  6ED9               	movwf	fsr2l,c
  6791   0059B8  0E01               	movlw	1
  6792   0059BA  20F4               	addwfc	prodh,w,c
  6793   0059BC  6EDA               	movwf	fsr2h,c
  6794   0059BE  50DF               	movf	indf2,w,c
  6795   0059C0  6E03               	movwf	??_CAN1_GetRxFifoDepth^(0+1280),c
  6796   0059C2  0E1F               	movlw	31
  6797   0059C4  1603               	andwf	??_CAN1_GetRxFifoDepth^(0+1280),f,c
  6798   0059C6  2803               	incf	??_CAN1_GetRxFifoDepth^(0+1280),w,c
  6799   0059C8  0012               	return		;funcret
  6800   0059CA                     __end_of_CAN1_GetRxFifoDepth:
  6801                           	callstack 0
  6802                           
  6803 ;; *************** function _INTERRUPT_InterruptManager *****************
  6804 ;; Defined at:
  6805 ;;		line 80 in file "mcc_generated_files/system/src/interrupt.c"
  6806 ;; Parameters:    Size  Location     Type
  6807 ;;		None
  6808 ;; Auto vars:     Size  Location     Type
  6809 ;;		None
  6810 ;; Return value:  Size  Location     Type
  6811 ;;                  1    wreg      void 
  6812 ;; Registers used:
  6813 ;;		wreg, status,2, status,0, pcl, pclath, pclatu, tosl, cstack
  6814 ;; Tracked objects:
  6815 ;;		On entry : 0/0
  6816 ;;		On exit  : 0/0
  6817 ;;		Unchanged: 0/0
  6818 ;; Data sizes:     COMRAM   BANK5   BANK6   BANK7   BANK8   BANK9  BANK10  BANK11  BANK12  BANK13  BANK14  BANK15  BANK1
      +6  BANK17  BANK18  BANK19  BANK20  BANK21  BANK22  BANK23  BANK24  BANK25  BANK26  BANK27  BANK28  BANK29  BANK30  BANK3
      +1  BANK32  BANK33  BANK34  BANK35  BANK36  BANK37  BANK38  BANK39  BANK40  BANK41  BANK42  BANK43  BANK44  BANK45  BANK4
      +6  BANK47  BANK48  BANK49  BANK50  BANK51  BANK52  BANK53  BANK54
  6819 ;;      Params:         0       0       0       0       0       0       0       0       0       0       0       0       
      +0       0       0       0       0       0       0       0       0       0       0       0       0       0       0       
      +0       0       0       0       0       0       0       0       0       0       0       0       0       0       0       
      +0       0       0       0       0       0       0       0       0
  6820 ;;      Locals:         0       0       0       0       0       0       0       0       0       0       0       0       
      +0       0       0       0       0       0       0       0       0       0       0       0       0       0       0       
      +0       0       0       0       0       0       0       0       0       0       0       0       0       0       0       
      +0       0       0       0       0       0       0       0       0
  6821 ;;      Temps:          2       0       0       0       0       0       0       0       0       0       0       0       
      +0       0       0       0       0       0       0       0       0       0       0       0       0       0       0       
      +0       0       0       0       0       0       0       0       0       0       0       0       0       0       0       
      +0       0       0       0       0       0       0       0       0
  6822 ;;      Totals:         2       0       0       0       0       0       0       0       0       0       0       0       
      +0       0       0       0       0       0       0       0       0       0       0       0       0       0       0       
      +0       0       0       0       0       0       0       0       0       0       0       0       0       0       0       
      +0       0       0       0       0       0       0       0       0
  6823 ;;Total ram usage:        2 bytes
  6824 ;; Hardware stack levels used: 1
  6825 ;; Hardware stack levels required when called: 2
  6826 ;; This function calls:
  6827 ;;		_CAN1_InformationISR
  6828 ;;		_PIN_MANAGER_IOC
  6829 ;;		_Timer0_OverflowISR
  6830 ;; This function is called by:
  6831 ;;		Interrupt level 2
  6832 ;; This function uses a non-reentrant model
  6833 ;;
  6834                           
  6835                           	psect	text47
  6836   005460                     __ptext47:
  6837                           	callstack 0
  6838   005460                     _INTERRUPT_InterruptManager:
  6839                           	callstack 120
  6840                           
  6841                           ;incstack = 0
  6842   005460  C4FA F501          	movff	pclath,??_INTERRUPT_InterruptManager
  6843   005464  C4FB F502          	movff	pclatu,??_INTERRUPT_InterruptManager+1
  6844   005468                     
  6845                           ;mcc_generated_files/system/src/interrupt.c: 83:     if(PIE0bits.IOCIE == 1 && PIR0bits.
      +                          IOCIF == 1)
  6846   005468  AE9E               	btfss	158,7,c	;volatile
  6847   00546A  EF39  F02A         	goto	i2u273_41
  6848   00546E  EF3B  F02A         	goto	i2u273_40
  6849   005472                     i2u273_41:
  6850   005472  EF46  F02A         	goto	i2l519
  6851   005476                     i2u273_40:
  6852   005476  AEAE               	btfss	174,7,c	;volatile
  6853   005478  EF40  F02A         	goto	i2u274_41
  6854   00547C  EF42  F02A         	goto	i2u274_40
  6855   005480                     i2u274_41:
  6856   005480  EF46  F02A         	goto	i2l519
  6857   005484                     i2u274_40:
  6858   005484                     
  6859                           ;mcc_generated_files/system/src/interrupt.c: 84:     {;mcc_generated_files/system/src/in
      +                          terrupt.c: 85:         PIN_MANAGER_IOC();
  6860   005484  EC92  F02D         	call	_PIN_MANAGER_IOC	;wreg free
  6861                           
  6862                           ;mcc_generated_files/system/src/interrupt.c: 86:     }
  6863   005488  EF6A  F02A         	goto	i2l525
  6864   00548C                     i2l519:
  6865   00548C  AEA1               	btfss	161,7,c	;volatile
  6866   00548E  EF4B  F02A         	goto	i2u275_41
  6867   005492  EF4D  F02A         	goto	i2u275_40
  6868   005496                     i2u275_41:
  6869   005496  EF58  F02A         	goto	i2l521
  6870   00549A                     i2u275_40:
  6871   00549A  AEB1               	btfss	177,7,c	;volatile
  6872   00549C  EF52  F02A         	goto	i2u276_41
  6873   0054A0  EF54  F02A         	goto	i2u276_40
  6874   0054A4                     i2u276_41:
  6875   0054A4  EF58  F02A         	goto	i2l521
  6876   0054A8                     i2u276_40:
  6877   0054A8                     
  6878                           ;mcc_generated_files/system/src/interrupt.c: 88:     {;mcc_generated_files/system/src/in
      +                          terrupt.c: 89:         Timer0_OverflowISR();
  6879   0054A8  EC02  F02C         	call	_Timer0_OverflowISR	;wreg free
  6880                           
  6881                           ;mcc_generated_files/system/src/interrupt.c: 90:     }
  6882   0054AC  EF6A  F02A         	goto	i2l525
  6883   0054B0                     i2l521:
  6884   0054B0  AC9E               	btfss	158,6,c	;volatile
  6885   0054B2  EF5D  F02A         	goto	i2u277_41
  6886   0054B6  EF5F  F02A         	goto	i2u277_40
  6887   0054BA                     i2u277_41:
  6888   0054BA  EF6A  F02A         	goto	i2l522
  6889   0054BE                     i2u277_40:
  6890   0054BE  ACAE               	btfss	174,6,c	;volatile
  6891   0054C0  EF64  F02A         	goto	i2u278_41
  6892   0054C4  EF66  F02A         	goto	i2u278_40
  6893   0054C8                     i2u278_41:
  6894   0054C8  EF6A  F02A         	goto	i2l522
  6895   0054CC                     i2u278_40:
  6896   0054CC                     
  6897                           ;mcc_generated_files/system/src/interrupt.c: 92:     {;mcc_generated_files/system/src/in
      +                          terrupt.c: 93:         CAN1_InformationISR();
  6898   0054CC  EC25  F02D         	call	_CAN1_InformationISR	;wreg free
  6899                           
  6900                           ;mcc_generated_files/system/src/interrupt.c: 94:     }
  6901   0054D0  EF6A  F02A         	goto	i2l525
  6902   0054D4                     i2l522:
  6903   0054D4                     i2l525:
  6904   0054D4  C502  F4FB         	movff	??_INTERRUPT_InterruptManager+1,pclatu
  6905   0054D8  C501  F4FA         	movff	??_INTERRUPT_InterruptManager,pclath
  6906   0054DC  0011               	retfie		f
  6907   0054DE                     __end_of_INTERRUPT_InterruptManager:
  6908                           	callstack 0
  6909                           
  6910 ;; *************** function _Timer0_OverflowISR *****************
  6911 ;; Defined at:
  6912 ;;		line 117 in file "mcc_generated_files/timer/src/tmr0.c"
  6913 ;; Parameters:    Size  Location     Type
  6914 ;;		None
  6915 ;; Auto vars:     Size  Location     Type
  6916 ;;		None
  6917 ;; Return value:  Size  Location     Type
  6918 ;;                  1    wreg      void 
  6919 ;; Registers used:
  6920 ;;		wreg, status,2, status,0, pcl, pclath, pclatu, tosl, cstack
  6921 ;; Tracked objects:
  6922 ;;		On entry : 0/0
  6923 ;;		On exit  : 0/0
  6924 ;;		Unchanged: 0/0
  6925 ;; Data sizes:     COMRAM   BANK5   BANK6   BANK7   BANK8   BANK9  BANK10  BANK11  BANK12  BANK13  BANK14  BANK15  BANK1
      +6  BANK17  BANK18  BANK19  BANK20  BANK21  BANK22  BANK23  BANK24  BANK25  BANK26  BANK27  BANK28  BANK29  BANK30  BANK3
      +1  BANK32  BANK33  BANK34  BANK35  BANK36  BANK37  BANK38  BANK39  BANK40  BANK41  BANK42  BANK43  BANK44  BANK45  BANK4
      +6  BANK47  BANK48  BANK49  BANK50  BANK51  BANK52  BANK53  BANK54
  6926 ;;      Params:         0       0       0       0       0       0       0       0       0       0       0       0       
      +0       0       0       0       0       0       0       0       0       0       0       0       0       0       0       
      +0       0       0       0       0       0       0       0       0       0       0       0       0       0       0       
      +0       0       0       0       0       0       0       0       0
  6927 ;;      Locals:         0       0       0       0       0       0       0       0       0       0       0       0       
      +0       0       0       0       0       0       0       0       0       0       0       0       0       0       0       
      +0       0       0       0       0       0       0       0       0       0       0       0       0       0       0       
      +0       0       0       0       0       0       0       0       0
  6928 ;;      Temps:          0       0       0       0       0       0       0       0       0       0       0       0       
      +0       0       0       0       0       0       0       0       0       0       0       0       0       0       0       
      +0       0       0       0       0       0       0       0       0       0       0       0       0       0       0       
      +0       0       0       0       0       0       0       0       0
  6929 ;;      Totals:         0       0       0       0       0       0       0       0       0       0       0       0       
      +0       0       0       0       0       0       0       0       0       0       0       0       0       0       0       
      +0       0       0       0       0       0       0       0       0       0       0       0       0       0       0       
      +0       0       0       0       0       0       0       0       0
  6930 ;;Total ram usage:        0 bytes
  6931 ;; Hardware stack levels used: 1
  6932 ;; Hardware stack levels required when called: 1
  6933 ;; This function calls:
  6934 ;;		NULL
  6935 ;;		_Timer0_DefaultOverflowCallback
  6936 ;;		_UpdateTmr
  6937 ;; This function is called by:
  6938 ;;		_INTERRUPT_InterruptManager
  6939 ;; This function uses a non-reentrant model
  6940 ;;
  6941                           
  6942                           	psect	text48
  6943   005804                     __ptext48:
  6944                           	callstack 0
  6945   005804                     _Timer0_OverflowISR:
  6946                           	callstack 120
  6947   005804                     
  6948                           ;mcc_generated_files/timer/src/tmr0.c: 120:     PIR3bits.TMR0IF = 0;
  6949   005804  9EB1               	bcf	177,7,c	;volatile
  6950   005806                     
  6951                           ;mcc_generated_files/timer/src/tmr0.c: 122:     TMR0H = timerTMR0ReloadVal16bit >> 8;
  6952   005806  504F               	movf	(_timerTMR0ReloadVal16bit+1)^(0+1280),w,c	;volatile
  6953   005808  0103               	movlb	3	; () banked
  6954   00580A  6F19               	movwf	25,b	;volatile
  6955   00580C                     
  6956                           ; BSR set to: 3
  6957                           ;mcc_generated_files/timer/src/tmr0.c: 123:     TMR0L = (uint8_t) timerTMR0ReloadVal16bi
      +                          t;
  6958   00580C  C54E  F318         	movff	_timerTMR0ReloadVal16bit,792	;volatile
  6959   005810                     
  6960                           ; BSR set to: 3
  6961                           ;mcc_generated_files/timer/src/tmr0.c: 125:     if(Timer0_OverflowCallback)
  6962   005810  503F               	movf	_Timer0_OverflowCallback^(0+1280),w,c
  6963   005812  1040               	iorwf	(_Timer0_OverflowCallback+1)^(0+1280),w,c
  6964   005814  1041               	iorwf	(_Timer0_OverflowCallback+2)^(0+1280),w,c
  6965   005816  B4D8               	btfsc	status,2,c
  6966   005818  EF10  F02C         	goto	i2u212_41
  6967   00581C  EF12  F02C         	goto	i2u212_40
  6968   005820                     i2u212_41:
  6969   005820  EF1F  F02C         	goto	i2l785
  6970   005824                     i2u212_40:
  6971   005824                     
  6972                           ; BSR set to: 3
  6973                           ;mcc_generated_files/timer/src/tmr0.c: 126:     {;mcc_generated_files/timer/src/tmr0.c: 
      +                          127:         Timer0_OverflowCallback();
  6974   005824  D802               	call	i2u213_48
  6975   005826  EF1F  F02C         	goto	i2u213_49
  6976   00582A                     i2u213_48:
  6977   00582A  0005               	push	
  6978   00582C  6EFA               	movwf	pclath,c
  6979   00582E  503F               	movf	_Timer0_OverflowCallback^(0+1280),w,c
  6980   005830  6EFD               	movwf	tosl,c
  6981   005832  5040               	movf	(_Timer0_OverflowCallback+1)^(0+1280),w,c
  6982   005834  6EFE               	movwf	tosh,c
  6983   005836  5041               	movf	(_Timer0_OverflowCallback+2)^(0+1280),w,c
  6984   005838  6EFF               	movwf	tosu,c
  6985   00583A  50FA               	movf	pclath,w,c
  6986   00583C  0012               	return		;indir
  6987   00583E                     i2u213_49:
  6988   00583E                     i2l785:
  6989   00583E  0012               	return		;funcret
  6990   005840                     __end_of_Timer0_OverflowISR:
  6991                           	callstack 0
  6992                           
  6993 ;; *************** function _Timer0_DefaultOverflowCallback *****************
  6994 ;; Defined at:
  6995 ;;		line 136 in file "mcc_generated_files/timer/src/tmr0.c"
  6996 ;; Parameters:    Size  Location     Type
  6997 ;;		None
  6998 ;; Auto vars:     Size  Location     Type
  6999 ;;		None
  7000 ;; Return value:  Size  Location     Type
  7001 ;;                  1    wreg      void 
  7002 ;; Registers used:
  7003 ;;		None
  7004 ;; Tracked objects:
  7005 ;;		On entry : 0/0
  7006 ;;		On exit  : 0/0
  7007 ;;		Unchanged: 0/0
  7008 ;; Data sizes:     COMRAM   BANK5   BANK6   BANK7   BANK8   BANK9  BANK10  BANK11  BANK12  BANK13  BANK14  BANK15  BANK1
      +6  BANK17  BANK18  BANK19  BANK20  BANK21  BANK22  BANK23  BANK24  BANK25  BANK26  BANK27  BANK28  BANK29  BANK30  BANK3
      +1  BANK32  BANK33  BANK34  BANK35  BANK36  BANK37  BANK38  BANK39  BANK40  BANK41  BANK42  BANK43  BANK44  BANK45  BANK4
      +6  BANK47  BANK48  BANK49  BANK50  BANK51  BANK52  BANK53  BANK54
  7009 ;;      Params:         0       0       0       0       0       0       0       0       0       0       0       0       
      +0       0       0       0       0       0       0       0       0       0       0       0       0       0       0       
      +0       0       0       0       0       0       0       0       0       0       0       0       0       0       0       
      +0       0       0       0       0       0       0       0       0
  7010 ;;      Locals:         0       0       0       0       0       0       0       0       0       0       0       0       
      +0       0       0       0       0       0       0       0       0       0       0       0       0       0       0       
      +0       0       0       0       0       0       0       0       0       0       0       0       0       0       0       
      +0       0       0       0       0       0       0       0       0
  7011 ;;      Temps:          0       0       0       0       0       0       0       0       0       0       0       0       
      +0       0       0       0       0       0       0       0       0       0       0       0       0       0       0       
      +0       0       0       0       0       0       0       0       0       0       0       0       0       0       0       
      +0       0       0       0       0       0       0       0       0
  7012 ;;      Totals:         0       0       0       0       0       0       0       0       0       0       0       0       
      +0       0       0       0       0       0       0       0       0       0       0       0       0       0       0       
      +0       0       0       0       0       0       0       0       0       0       0       0       0       0       0       
      +0       0       0       0       0       0       0       0       0
  7013 ;;Total ram usage:        0 bytes
  7014 ;; Hardware stack levels used: 1
  7015 ;; This function calls:
  7016 ;;		Nothing
  7017 ;; This function is called by:
  7018 ;;		_Timer0_Initialize
  7019 ;;		_Timer0_OverflowISR
  7020 ;; This function uses a non-reentrant model
  7021 ;;
  7022                           
  7023                           	psect	text49
  7024   005B22                     __ptext49:
  7025                           	callstack 0
  7026   005B22                     _Timer0_DefaultOverflowCallback:
  7027                           	callstack 120
  7028   005B22  0012               	return		;funcret
  7029   005B24                     __end_of_Timer0_DefaultOverflowCallback:
  7030                           	callstack 0
  7031                           
  7032 ;; *************** function _UpdateTmr *****************
  7033 ;; Defined at:
  7034 ;;		line 57 in file "main.c"
  7035 ;; Parameters:    Size  Location     Type
  7036 ;;		None
  7037 ;; Auto vars:     Size  Location     Type
  7038 ;;		None
  7039 ;; Return value:  Size  Location     Type
  7040 ;;                  1    wreg      void 
  7041 ;; Registers used:
  7042 ;;		wreg, status,2, status,0
  7043 ;; Tracked objects:
  7044 ;;		On entry : 0/0
  7045 ;;		On exit  : 0/0
  7046 ;;		Unchanged: 0/0
  7047 ;; Data sizes:     COMRAM   BANK5   BANK6   BANK7   BANK8   BANK9  BANK10  BANK11  BANK12  BANK13  BANK14  BANK15  BANK1
      +6  BANK17  BANK18  BANK19  BANK20  BANK21  BANK22  BANK23  BANK24  BANK25  BANK26  BANK27  BANK28  BANK29  BANK30  BANK3
      +1  BANK32  BANK33  BANK34  BANK35  BANK36  BANK37  BANK38  BANK39  BANK40  BANK41  BANK42  BANK43  BANK44  BANK45  BANK4
      +6  BANK47  BANK48  BANK49  BANK50  BANK51  BANK52  BANK53  BANK54
  7048 ;;      Params:         0       0       0       0       0       0       0       0       0       0       0       0       
      +0       0       0       0       0       0       0       0       0       0       0       0       0       0       0       
      +0       0       0       0       0       0       0       0       0       0       0       0       0       0       0       
      +0       0       0       0       0       0       0       0       0
  7049 ;;      Locals:         0       0       0       0       0       0       0       0       0       0       0       0       
      +0       0       0       0       0       0       0       0       0       0       0       0       0       0       0       
      +0       0       0       0       0       0       0       0       0       0       0       0       0       0       0       
      +0       0       0       0       0       0       0       0       0
  7050 ;;      Temps:          0       0       0       0       0       0       0       0       0       0       0       0       
      +0       0       0       0       0       0       0       0       0       0       0       0       0       0       0       
      +0       0       0       0       0       0       0       0       0       0       0       0       0       0       0       
      +0       0       0       0       0       0       0       0       0
  7051 ;;      Totals:         0       0       0       0       0       0       0       0       0       0       0       0       
      +0       0       0       0       0       0       0       0       0       0       0       0       0       0       0       
      +0       0       0       0       0       0       0       0       0       0       0       0       0       0       0       
      +0       0       0       0       0       0       0       0       0
  7052 ;;Total ram usage:        0 bytes
  7053 ;; Hardware stack levels used: 1
  7054 ;; This function calls:
  7055 ;;		Nothing
  7056 ;; This function is called by:
  7057 ;;		_main
  7058 ;;		_Timer0_OverflowISR
  7059 ;; This function uses a non-reentrant model
  7060 ;;
  7061                           
  7062                           	psect	text50
  7063   005A9C                     __ptext50:
  7064                           	callstack 0
  7065   005A9C                     _UpdateTmr:
  7066                           	callstack 120
  7067   005A9C                     
  7068                           ;main.c: 58:     __INTERNAL_TIMER__ += 1000u;
  7069   005A9C  0EE8               	movlw	232
  7070   005A9E  0105               	movlb	5	; () banked
  7071   005AA0  2760               	addwf	___INTERNAL_TIMER__& (0+255),f,b
  7072   005AA2  0E03               	movlw	3
  7073   005AA4  2361               	addwfc	(___INTERNAL_TIMER__+1)& (0+255),f,b
  7074   005AA6  0E00               	movlw	0
  7075   005AA8  2362               	addwfc	(___INTERNAL_TIMER__+2)& (0+255),f,b
  7076   005AAA  0E00               	movlw	0
  7077   005AAC  2363               	addwfc	(___INTERNAL_TIMER__+3)& (0+255),f,b
  7078   005AAE                     
  7079                           ; BSR set to: 5
  7080   005AAE  0012               	return		;funcret
  7081   005AB0                     __end_of_UpdateTmr:
  7082                           	callstack 0
  7083                           
  7084 ;; *************** function _PIN_MANAGER_IOC *****************
  7085 ;; Defined at:
  7086 ;;		line 128 in file "mcc_generated_files/system/src/pins.c"
  7087 ;; Parameters:    Size  Location     Type
  7088 ;;		None
  7089 ;; Auto vars:     Size  Location     Type
  7090 ;;		None
  7091 ;; Return value:  Size  Location     Type
  7092 ;;                  1    wreg      void 
  7093 ;; Registers used:
  7094 ;;		None
  7095 ;; Tracked objects:
  7096 ;;		On entry : 0/0
  7097 ;;		On exit  : 0/0
  7098 ;;		Unchanged: 0/0
  7099 ;; Data sizes:     COMRAM   BANK5   BANK6   BANK7   BANK8   BANK9  BANK10  BANK11  BANK12  BANK13  BANK14  BANK15  BANK1
      +6  BANK17  BANK18  BANK19  BANK20  BANK21  BANK22  BANK23  BANK24  BANK25  BANK26  BANK27  BANK28  BANK29  BANK30  BANK3
      +1  BANK32  BANK33  BANK34  BANK35  BANK36  BANK37  BANK38  BANK39  BANK40  BANK41  BANK42  BANK43  BANK44  BANK45  BANK4
      +6  BANK47  BANK48  BANK49  BANK50  BANK51  BANK52  BANK53  BANK54
  7100 ;;      Params:         0       0       0       0       0       0       0       0       0       0       0       0       
      +0       0       0       0       0       0       0       0       0       0       0       0       0       0       0       
      +0       0       0       0       0       0       0       0       0       0       0       0       0       0       0       
      +0       0       0       0       0       0       0       0       0
  7101 ;;      Locals:         0       0       0       0       0       0       0       0       0       0       0       0       
      +0       0       0       0       0       0       0       0       0       0       0       0       0       0       0       
      +0       0       0       0       0       0       0       0       0       0       0       0       0       0       0       
      +0       0       0       0       0       0       0       0       0
  7102 ;;      Temps:          0       0       0       0       0       0       0       0       0       0       0       0       
      +0       0       0       0       0       0       0       0       0       0       0       0       0       0       0       
      +0       0       0       0       0       0       0       0       0       0       0       0       0       0       0       
      +0       0       0       0       0       0       0       0       0
  7103 ;;      Totals:         0       0       0       0       0       0       0       0       0       0       0       0       
      +0       0       0       0       0       0       0       0       0       0       0       0       0       0       0       
      +0       0       0       0       0       0       0       0       0       0       0       0       0       0       0       
      +0       0       0       0       0       0       0       0       0
  7104 ;;Total ram usage:        0 bytes
  7105 ;; Hardware stack levels used: 1
  7106 ;; This function calls:
  7107 ;;		Nothing
  7108 ;; This function is called by:
  7109 ;;		_INTERRUPT_InterruptManager
  7110 ;; This function uses a non-reentrant model
  7111 ;;
  7112                           
  7113                           	psect	text51
  7114   005B24                     __ptext51:
  7115                           	callstack 0
  7116   005B24                     _PIN_MANAGER_IOC:
  7117                           	callstack 121
  7118   005B24  0012               	return		;funcret
  7119   005B26                     __end_of_PIN_MANAGER_IOC:
  7120                           	callstack 0
  7121                           
  7122 ;; *************** function _CAN1_InformationISR *****************
  7123 ;; Defined at:
  7124 ;;		line 907 in file "mcc_generated_files/can/src/can1.c"
  7125 ;; Parameters:    Size  Location     Type
  7126 ;;		None
  7127 ;; Auto vars:     Size  Location     Type
  7128 ;;		None
  7129 ;; Return value:  Size  Location     Type
  7130 ;;                  1    wreg      void 
  7131 ;; Registers used:
  7132 ;;		None
  7133 ;; Tracked objects:
  7134 ;;		On entry : 0/0
  7135 ;;		On exit  : 0/0
  7136 ;;		Unchanged: 0/0
  7137 ;; Data sizes:     COMRAM   BANK5   BANK6   BANK7   BANK8   BANK9  BANK10  BANK11  BANK12  BANK13  BANK14  BANK15  BANK1
      +6  BANK17  BANK18  BANK19  BANK20  BANK21  BANK22  BANK23  BANK24  BANK25  BANK26  BANK27  BANK28  BANK29  BANK30  BANK3
      +1  BANK32  BANK33  BANK34  BANK35  BANK36  BANK37  BANK38  BANK39  BANK40  BANK41  BANK42  BANK43  BANK44  BANK45  BANK4
      +6  BANK47  BANK48  BANK49  BANK50  BANK51  BANK52  BANK53  BANK54
  7138 ;;      Params:         0       0       0       0       0       0       0       0       0       0       0       0       
      +0       0       0       0       0       0       0       0       0       0       0       0       0       0       0       
      +0       0       0       0       0       0       0       0       0       0       0       0       0       0       0       
      +0       0       0       0       0       0       0       0       0
  7139 ;;      Locals:         0       0       0       0       0       0       0       0       0       0       0       0       
      +0       0       0       0       0       0       0       0       0       0       0       0       0       0       0       
      +0       0       0       0       0       0       0       0       0       0       0       0       0       0       0       
      +0       0       0       0       0       0       0       0       0
  7140 ;;      Temps:          0       0       0       0       0       0       0       0       0       0       0       0       
      +0       0       0       0       0       0       0       0       0       0       0       0       0       0       0       
      +0       0       0       0       0       0       0       0       0       0       0       0       0       0       0       
      +0       0       0       0       0       0       0       0       0
  7141 ;;      Totals:         0       0       0       0       0       0       0       0       0       0       0       0       
      +0       0       0       0       0       0       0       0       0       0       0       0       0       0       0       
      +0       0       0       0       0       0       0       0       0       0       0       0       0       0       0       
      +0       0       0       0       0       0       0       0       0
  7142 ;;Total ram usage:        0 bytes
  7143 ;; Hardware stack levels used: 1
  7144 ;; This function calls:
  7145 ;;		Nothing
  7146 ;; This function is called by:
  7147 ;;		_INTERRUPT_InterruptManager
  7148 ;; This function uses a non-reentrant model
  7149 ;;
  7150                           
  7151                           	psect	text52
  7152   005A4A                     __ptext52:
  7153                           	callstack 0
  7154   005A4A                     _CAN1_InformationISR:
  7155                           	callstack 121
  7156   005A4A                     
  7157                           ;mcc_generated_files/can/src/can1.c: 910:     if(1 == C1INTHbits.WAKIF)
  7158   005A4A  0101               	movlb	1	; () banked
  7159   005A4C  AD1D               	btfss	29,6,b	;volatile
  7160   005A4E  EF2B  F02D         	goto	i2u209_41
  7161   005A52  EF2D  F02D         	goto	i2u209_40
  7162   005A56                     i2u209_41:
  7163   005A56  EF2E  F02D         	goto	i2l343
  7164   005A5A                     i2u209_40:
  7165   005A5A                     
  7166                           ; BSR set to: 1
  7167                           ;mcc_generated_files/can/src/can1.c: 917:         C1INTHbits.WAKIF = 0;
  7168   005A5A  9D1D               	bcf	29,6,b	;volatile
  7169   005A5C                     i2l343:
  7170                           
  7171                           ; BSR set to: 1
  7172                           ;mcc_generated_files/can/src/can1.c: 920:     PIR0bits.CANIF = 0;
  7173   005A5C  9CAE               	bcf	174,6,c	;volatile
  7174   005A5E                     
  7175                           ; BSR set to: 1
  7176   005A5E  0012               	return		;funcret
  7177   005A60                     __end_of_CAN1_InformationISR:
  7178                           	callstack 0
  7179                           
  7180                           ;
  7181                           ; Interrupt Vector Table @ 0x8
  7182                           ;
  7183                           
  7184                           	psect	ivt0x8
  7185   000008                     __pivt0x8:
  7186                           	callstack 0
  7187   000008                     ivt0x8_base:
  7188                           	callstack 0
  7189                           
  7190                           ; high-priority vector
  7191   000008  EF30  F02A         	goto	_INTERRUPT_InterruptManager
  7192   000018                     	org	16
  7193                           
  7194                           ; low-priority vector
  7195   000018  00FF               	reset	
  7196                           
  7197                           	psect	text53
  7198   000000                     __ptext53:
  7199                           	callstack 0
  7200   000000                     
  7201                           	psect	rparam
  7202   000000                     
  7203                           	psect	config
  7204                           
  7205                           ;Config register CONFIG1 @ 0x300000
  7206                           ;	External Oscillator Selection
  7207                           ;	FEXTOSC = OFF, Oscillator not enabled
  7208                           ;	Reset Oscillator Selection
  7209                           ;	RSTOSC = HFINTOSC_64MHZ, HFINTOSC with HFFRQ = 64 MHz and CDIV = 1:1
  7210   300000                     	org	3145728
  7211   300000  8C                 	db	140
  7212                           
  7213                           ;Config register CONFIG2 @ 0x300001
  7214                           ;	Clock out Enable bit
  7215                           ;	CLKOUTEN = OFF, CLKOUT function is disabled
  7216                           ;	PRLOCKED One-Way Set Enable bit
  7217                           ;	PR1WAY = ON, PRLOCKED bit can be cleared and set only once
  7218                           ;	Clock Switch Enable bit
  7219                           ;	CSWEN = ON, Writing to NOSC and NDIV is allowed
  7220                           ;	JTAG Enable bit
  7221                           ;	JTAGEN = OFF, Disable JTAG Boundary Scan mode, JTAG pins revert to user functions
  7222                           ;	Fail-Safe Clock Monitor Enable bit
  7223                           ;	FCMEN = ON, Fail-Safe Clock Monitor enabled
  7224                           ;	Fail-Safe Clock Monitor -Primary XTAL Enable bit
  7225                           ;	FCMENP = ON, FSCM timer will set FSCMP bit and OSFIF interrupt on Primary XTAL failure
  7226                           ;	Fail-Safe Clock Monitor -Secondary XTAL Enable bit
  7227                           ;	FCMENS = ON, FSCM timer will set FSCMS bit and OSFIF interrupt on Secondary XTAL failu
      +                          re
  7228   300001                     	org	3145729
  7229   300001  EF                 	db	239
  7230                           
  7231                           ;Config register CONFIG3 @ 0x300002
  7232                           ;	MCLR Enable bit
  7233                           ;	MCLRE = EXTMCLR, If LVP = 0, MCLR pin is MCLR; If LVP = 1, RE3 pin function is MCLR
  7234                           ;	Power-up timer selection bits
  7235                           ;	PWRTS = PWRT_OFF, PWRT is disabled
  7236                           ;	Multi-vector enable bit
  7237                           ;	MVECEN = OFF, Interrupt contoller does not use vector table to prioritze interrupts
  7238                           ;	IVTLOCK bit One-way set enable bit
  7239                           ;	IVT1WAY = ON, IVTLOCKED bit can be cleared and set only once
  7240                           ;	Low Power BOR Enable bit
  7241                           ;	LPBOREN = OFF, Low-Power BOR disabled
  7242                           ;	Brown-out Reset Enable bits
  7243                           ;	BOREN = SBORDIS, Brown-out Reset enabled , SBOREN bit is ignored
  7244   300002                     	org	3145730
  7245   300002  F7                 	db	247
  7246                           
  7247                           ;Config register CONFIG4 @ 0x300003
  7248                           ;	Brown-out Reset Voltage Selection bits
  7249                           ;	BORV = VBOR_1P9, Brown-out Reset Voltage (VBOR) set to 1.9V
  7250                           ;	ZCD Disable bit
  7251                           ;	ZCD = OFF, ZCD module is disabled. ZCD can be enabled by setting the ZCDSEN bit of ZCD
      +                          CON
  7252                           ;	PPSLOCK bit One-Way Set Enable bit
  7253                           ;	PPS1WAY = ON, PPSLOCKED bit can be cleared and set only once; PPS registers remain loc
      +                          ked after one clear/set cycle
  7254                           ;	Stack Full/Underflow Reset Enable bit
  7255                           ;	STVREN = ON, Stack full/underflow will cause Reset
  7256                           ;	Low Voltage Programming Enable bit
  7257                           ;	LVP = ON, Low voltage programming enabled. MCLR/VPP pin function is MCLR. MCLRE config
      +                          uration bit is ignored
  7258                           ;	Extended Instruction Set Enable bit
  7259                           ;	XINST = OFF, Extended Instruction Set and Indexed Addressing Mode disabled
  7260   300003                     	org	3145731
  7261   300003  FF                 	db	255
  7262                           
  7263                           ;Config register CONFIG5 @ 0x300004
  7264                           ;	WDT Period selection bits
  7265                           ;	WDTCPS = WDTCPS_31, Divider ratio 1:65536; software control of WDTPS
  7266                           ;	WDT operating mode
  7267                           ;	WDTE = OFF, WDT Disabled; SWDTEN is ignored
  7268   300004                     	org	3145732
  7269   300004  9F                 	db	159
  7270                           
  7271                           ;Config register CONFIG6 @ 0x300005
  7272                           ;	WDT Window Select bits
  7273                           ;	WDTCWS = WDTCWS_7, window always open (100%); software control; keyed access not requi
      +                          red
  7274                           ;	WDT input clock selector
  7275                           ;	WDTCCS = SC, Software Control
  7276   300005                     	org	3145733
  7277   300005  FF                 	db	255
  7278                           
  7279                           ;Config register CONFIG7 @ 0x300006
  7280                           ;	Boot Block Size selection bits
  7281                           ;	BBSIZE = BBSIZE_512, Boot Block size is 512 words
  7282                           ;	Boot Block enable bit
  7283                           ;	BBEN = OFF, Boot block disabled
  7284                           ;	Storage Area Flash enable bit
  7285                           ;	SAFEN = OFF, SAF disabled
  7286                           ;	Background Debugger
  7287                           ;	DEBUG = 0x1, unprogrammed default
  7288   300006                     	org	3145734
  7289   300006  FF                 	db	255
  7290                           
  7291                           ;Config register CONFIG8 @ 0x300007
  7292                           ;	Boot Block Write Protection bit
  7293                           ;	WRTB = OFF, Boot Block not Write protected
  7294                           ;	Configuration Register Write Protection bit
  7295                           ;	WRTC = OFF, Configuration registers not Write protected
  7296                           ;	Data EEPROM Write Protection bit
  7297                           ;	WRTD = OFF, Data EEPROM not Write protected
  7298                           ;	SAF Write protection bit
  7299                           ;	WRTSAF = OFF, SAF not Write Protected
  7300                           ;	Application Block write protection bit
  7301                           ;	WRTAPP = OFF, Application Block not write protected
  7302   300007                     	org	3145735
  7303   300007  FF                 	db	255
  7304                           
  7305                           ;Config register CONFIG9 @ 0x300008
  7306                           ;	CRC on boot output pin selection
  7307                           ;	BOOTPINSEL = RC5, CRC on boot output pin is RC5
  7308                           ;	CRC on boot output pin enable bit
  7309                           ;	BPEN = OFF, CRC on boot output pin disabled
  7310                           ;	CRC on boot output pin open drain bit
  7311                           ;	ODCON = OFF, Pin drives both high-going and low-going signals
  7312   300008                     	org	3145736
  7313   300008  FF                 	db	255
  7314                           
  7315                           ;Config register CONFIG10 @ 0x300009
  7316                           ;	PFM and Data EEPROM Code Protection bit
  7317                           ;	CP = OFF, PFM and Data EEPROM code protection disabled
  7318   300009                     	org	3145737
  7319   300009  FF                 	db	255
  7320                           
  7321                           ;Config register CONFIG11 @ 0x30000A
  7322                           ;	CRC on boot scan enable for boot area
  7323                           ;	BOOTSCEN = OFF, CRC on boot will not include the boot area of program memory in its ca
      +                          lculation
  7324                           ;	CRC on boot Continue on Error for boot areas bit
  7325                           ;	BOOTCOE = HALT, CRC on boot will stop device if error is detected in boot areas
  7326                           ;	CRC on boot application code scan enable
  7327                           ;	APPSCEN = OFF, CRC on boot will not include the application area of program memory in 
      +                          its calculation
  7328                           ;	CRC on boot SAF area scan enable
  7329                           ;	SAFSCEN = OFF, CRC on boot will not include the SAF area of program memory in its calc
      +                          ulation
  7330                           ;	CRC on boot Data EEPROM scan enable
  7331                           ;	DATASCEN = OFF, CRC on boot will not include data EEPROM in its calculation
  7332                           ;	CRC on boot Config fuses scan enable
  7333                           ;	CFGSCEN = OFF, CRC on boot will not include the configuration fuses in its calculation
  7334                           ;	CRC on boot Continue on Error for non-boot areas bit
  7335                           ;	COE = HALT, CRC on boot will stop device if error is detected in non-boot areas
  7336                           ;	Boot on CRC Enable bit
  7337                           ;	BOOTPOR = OFF, CRC on boot will not run
  7338   30000A                     	org	3145738
  7339   30000A  FF                 	db	255
  7340                           
  7341                           ;Config register CONFIG12 @ 0x30000B
  7342                           ;	Boot Sector Polynomial for CRC on boot bits 31-24
  7343                           ;	BCRCPOLT = hFF, Bits 31:24 of BCRCPOL are 0xFF
  7344   30000B                     	org	3145739
  7345   30000B  FF                 	db	255
  7346                           
  7347                           ;Config register CONFIG13 @ 0x30000C
  7348                           ;	Boot Sector Polynomial for CRC on boot bits 23-16
  7349                           ;	BCRCPOLU = hFF, Bits 23:16 of BCRCPOL are 0xFF
  7350   30000C                     	org	3145740
  7351   30000C  FF                 	db	255
  7352                           
  7353                           ;Config register CONFIG14 @ 0x30000D
  7354                           ;	Boot Sector Polynomial for CRC on boot bits 15-8
  7355                           ;	BCRCPOLH = hFF, Bits 15:8 of BCRCPOL are 0xFF
  7356   30000D                     	org	3145741
  7357   30000D  FF                 	db	255
  7358                           
  7359                           ;Config register CONFIG15 @ 0x30000E
  7360                           ;	Boot Sector Polynomial for CRC on boot bits 7-0
  7361                           ;	BCRCPOLL = hFF, Bits 7:0 of BCRCPOL are 0xFF
  7362   30000E                     	org	3145742
  7363   30000E  FF                 	db	255
  7364                           
  7365                           ;Config register CONFIG16 @ 0x30000F
  7366                           ;	Boot Sector Seed for CRC on boot bits 31-24
  7367                           ;	BCRCSEEDT = hFF, Bits 31:24 of BCRCSEED are 0xFF
  7368   30000F                     	org	3145743
  7369   30000F  FF                 	db	255
  7370                           
  7371                           ;Config register CONFIG17 @ 0x300010
  7372                           ;	Boot Sector Seed for CRC on boot bits 23-16
  7373                           ;	BCRCSEEDU = hFF, Bits 23:16 of BCRCSEED are 0xFF
  7374   300010                     	org	3145744
  7375   300010  FF                 	db	255
  7376                           
  7377                           ;Config register CONFIG18 @ 0x300011
  7378                           ;	Boot Sector Seed for CRC on boot bits 15-8
  7379                           ;	BCRCSEEDH = hFF, Bits 15:8 of BCRCSEED are 0xFF
  7380   300011                     	org	3145745
  7381   300011  FF                 	db	255
  7382                           
  7383                           ;Config register CONFIG19 @ 0x300012
  7384                           ;	Boot Sector Seed for CRC on boot bits 7-0
  7385                           ;	BCRCSEEDL = hFF, Bits 7:0 of BCRCSEED are 0xFF
  7386   300012                     	org	3145746
  7387   300012  FF                 	db	255
  7388                           
  7389                           ;Config register CONFIG20 @ 0x300013
  7390                           ;	Boot Sector Expected Result for CRC on boot bits 31-24
  7391                           ;	BCRCEREST = hFF, Bits 31:24 of BCRCERES are 0xFF
  7392   300013                     	org	3145747
  7393   300013  FF                 	db	255
  7394                           
  7395                           ;Config register CONFIG21 @ 0x300014
  7396                           ;	Boot Sector Expected Result for CRC on boot bits 23-16
  7397                           ;	BCRCERESU = hFF, Bits 23:16 of BCRCERES are 0xFF
  7398   300014                     	org	3145748
  7399   300014  FF                 	db	255
  7400                           
  7401                           ;Config register CONFIG22 @ 0x300015
  7402                           ;	Boot Sector Expected Result for CRC on boot bits 15-8
  7403                           ;	BCRCERESH = hFF, Bits 15:8 of BCRCERES are 0xFF
  7404   300015                     	org	3145749
  7405   300015  FF                 	db	255
  7406                           
  7407                           ;Config register CONFIG23 @ 0x300016
  7408                           ;	Boot Sector Expected Result for CRC on boot bits 7-0
  7409                           ;	BCRCERESL = hFF, Bits 7:0 of BCRCERES are 0xFF
  7410   300016                     	org	3145750
  7411   300016  FF                 	db	255
  7412                           
  7413                           ;Config register CONFIG24 @ 0x300017
  7414                           ;	Non-Boot Sector Polynomial for CRC on boot bits 31-24
  7415                           ;	CRCPOLT = hFF, Bits 31:24 of CRCPOL are 0xFF
  7416   300017                     	org	3145751
  7417   300017  FF                 	db	255
  7418                           
  7419                           ;Config register CONFIG25 @ 0x300018
  7420                           ;	Non-Boot Sector Polynomial for CRC on boot bits 23-16
  7421                           ;	CRCPOLU = hFF, Bits 23:16 of CRCPOL are 0xFF
  7422   300018                     	org	3145752
  7423   300018  FF                 	db	255
  7424                           
  7425                           ;Config register CONFIG26 @ 0x300019
  7426                           ;	Non-Boot Sector Polynomial for CRC on boot bits 15-8
  7427                           ;	CRCPOLH = hFF, Bits 15:8 of CRCPOL are 0xFF
  7428   300019                     	org	3145753
  7429   300019  FF                 	db	255
  7430                           
  7431                           ;Config register CONFIG27 @ 0x30001A
  7432                           ;	Non-Boot Sector Polynomial for CRC on boot bits 7-0
  7433                           ;	CRCPOLL = hFF, Bits 7:0 of CRCPOL are 0xFF
  7434   30001A                     	org	3145754
  7435   30001A  FF                 	db	255
  7436                           
  7437                           ;Config register CONFIG28 @ 0x30001B
  7438                           ;	Non-Boot Sector Seed for CRC on boot bits 31-24
  7439                           ;	CRCSEEDT = hFF, Bits 31:24 of CRCSEED are 0xFF
  7440   30001B                     	org	3145755
  7441   30001B  FF                 	db	255
  7442                           
  7443                           ;Config register CONFIG29 @ 0x30001C
  7444                           ;	Non-Boot Sector Seed for CRC on boot bits 23-16
  7445                           ;	CRCSEEDU = hFF, Bits 23:16 of CRCSEED are 0xFF
  7446   30001C                     	org	3145756
  7447   30001C  FF                 	db	255
  7448                           
  7449                           ;Config register CONFIG30 @ 0x30001D
  7450                           ;	Non-Boot Sector Seed for CRC on boot bits 15-8
  7451                           ;	CRCSEEDH = hFF, Bits 15:8 of CRCSEED are 0xFF
  7452   30001D                     	org	3145757
  7453   30001D  FF                 	db	255
  7454                           
  7455                           ;Config register CONFIG31 @ 0x30001E
  7456                           ;	Non-Boot Sector Seed for CRC on boot bits 7-0
  7457                           ;	CRCSEEDL = hFF, Bits 7:0 of CRCSEED are 0xFF
  7458   30001E                     	org	3145758
  7459   30001E  FF                 	db	255
  7460                           
  7461                           ;Config register CONFIG32 @ 0x30001F
  7462                           ;	Non-Boot Sector Expected Result for CRC on boot bits 31-24
  7463                           ;	CRCEREST = hFF, Bits 31:24 of CRCERES are 0xFF
  7464   30001F                     	org	3145759
  7465   30001F  FF                 	db	255
  7466                           
  7467                           ;Config register CONFIG33 @ 0x300020
  7468                           ;	Non-Boot Sector Expected Result for CRC on boot bits 23-16
  7469                           ;	CRCERESU = hFF, Bits 23:16 of CRCERES are 0xFF
  7470   300020                     	org	3145760
  7471   300020  FF                 	db	255
  7472                           
  7473                           ;Config register CONFIG34 @ 0x300021
  7474                           ;	Non-Boot Sector Expected Result for CRC on boot bits 15-8
  7475                           ;	CRCERESH = hFF, Bits 15:8 of CRCERES are 0xFF
  7476   300021                     	org	3145761
  7477   300021  FF                 	db	255
  7478                           
  7479                           ;Config register CONFIG35 @ 0x300022
  7480                           ;	Non-Boot Sector Expected Result for CRC on boot bits 7-0
  7481                           ;	CRCERESL = hFF, Bits 7:0 of CRCERES are 0xFF
  7482   300022                     	org	3145762
  7483   300022  FF                 	db	255
  7484                           tosu	equ	0x4FF
  7485                           tosh	equ	0x4FE
  7486                           tosl	equ	0x4FD
  7487                           stkptr	equ	0x4FC
  7488                           pclatu	equ	0x4FB
  7489                           pclath	equ	0x4FA
  7490                           pcl	equ	0x4F9
  7491                           tblptru	equ	0x4F8
  7492                           tblptrh	equ	0x4F7
  7493                           tblptrl	equ	0x4F6
  7494                           tablat	equ	0x4F5
  7495                           prodh	equ	0x4F4
  7496                           prodl	equ	0x4F3
  7497                           indf0	equ	0x4EF
  7498                           postinc0	equ	0x4EE
  7499                           postdec0	equ	0x4ED
  7500                           preinc0	equ	0x4EC
  7501                           plusw0	equ	0x4EB
  7502                           fsr0h	equ	0x4EA
  7503                           fsr0l	equ	0x4E9
  7504                           wreg	equ	0x4E8
  7505                           indf1	equ	0x4E7
  7506                           postinc1	equ	0x4E6
  7507                           postdec1	equ	0x4E5
  7508                           preinc1	equ	0x4E4
  7509                           plusw1	equ	0x4E3
  7510                           fsr1h	equ	0x4E2
  7511                           fsr1l	equ	0x4E1
  7512                           bsr	equ	0x4E0
  7513                           indf2	equ	0x4DF
  7514                           postinc2	equ	0x4DE
  7515                           postdec2	equ	0x4DD
  7516                           preinc2	equ	0x4DC
  7517                           plusw2	equ	0x4DB
  7518                           fsr2h	equ	0x4DA
  7519                           fsr2l	equ	0x4D9
  7520                           status	equ	0x4D8

Data Sizes:
    Strings     0
    Constant    139
    Data        20
    BSS         71
    Persistent  0
    Stack       0

Auto Spaces:
    Space          Size  Autos    Used
    COMRAM           95     62      93
    BANK5           160      2      62
    BANK6           256      0       0
    BANK7           256      0       0
    BANK8           256      0       0
    BANK9           256      0       0
    BANK10          256      0       0
    BANK11          256      0       0
    BANK12          256      0       0
    BANK13          256      0       0
    BANK14          256      0       0
    BANK15          256      0       0
    BANK16          256      0       0
    BANK17          256      0       0
    BANK18          256      0       0
    BANK19          256      0       0
    BANK20          256      0       0
    BANK21          256      0       0
    BANK22          256      0       0
    BANK23          256      0       0
    BANK24          256      0       0
    BANK25          256      0       0
    BANK26          256      0       0
    BANK27          256      0       0
    BANK28          256      0       0
    BANK29          256      0       0
    BANK30          256      0       0
    BANK31          256      0       0
    BANK32          256      0       0
    BANK33          256      0       0
    BANK34          256      0       0
    BANK35          256      0       0
    BANK36          256      0       0
    BANK37          256      0       0
    BANK38          256      0       0
    BANK39          256      0       0
    BANK40          256      0       0
    BANK41          256      0       0
    BANK42          256      0       0
    BANK43          256      0       0
    BANK44          256      0       0
    BANK45          256      0       0
    BANK46          256      0       0
    BANK47          256      0       0
    BANK48          256      0       0
    BANK49          256      0       0
    BANK50          256      0       0
    BANK51          256      0       0
    BANK52          256      0       0
    BANK53          256      0       0
    BANK54          256      0       0

Pointer List with Targets:

    S94$10$1	PTR struct CAN_MSG_OBJ size(2) Largest target is 0

    S94$18$0	PTR FTN()void  size(3) Largest target is 0

    S94$19$0	PTR FTN()void  size(3) Largest target is 0

    S94$20$0	PTR FTN()void  size(3) Largest target is 0

    S94$21$0	PTR FTN()void  size(3) Largest target is 0

    S94$22$0	PTR FTN()void  size(3) Largest target is 0

    S94$23$0	PTR FTN()void  size(3) Largest target is 0

    S94$24$0	PTR FTN()void  size(3) Largest target is 0

    S1026$3$0	PTR void  size(2) Largest target is 0

    S1026$4$0	PTR void  size(2) Largest target is 0

    S1026$5$0	PTR void  size(2) Largest target is 0

    S1657$4$0	PTR FTN()void  size(3) Largest target is 1
		 -> UpdateTmr(), Timer0_DefaultOverflowCallback(), 

    S94$4$1	PTR struct CAN_MSG_OBJ size(2) Largest target is 8
		 -> TxFrm(BANK5[7]), 

    S94$9$0	PTR struct CAN_MSG_OBJ size(2) Largest target is 8
		 -> RxFrm(BANK5[7]), 

    memcpy@d1	PTR void  size(2) Largest target is 14079
		 -> RAM(DATA[14079]), 

    memcpy@d	PTR unsigned char  size(2) Largest target is 14079
		 -> RAM(DATA[14079]), 

    memcpy@s1	PTR const void  size(2) Largest target is 8
		 -> RxData(BANK5[8]), TxData(BANK5[8]), rxMsgData(BANK5[8]), 

    memcpy@s	PTR const unsigned char  size(2) Largest target is 8
		 -> RxData(BANK5[8]), TxData(BANK5[8]), rxMsgData(BANK5[8]), 

    calculate_P@p1	const PTR unsigned char  size(2) Largest target is 1
		 -> P1(COMRAM[1]), 

    calculate_P@p0	const PTR unsigned char  size(2) Largest target is 1
		 -> P0(COMRAM[1]), 

    IO_RTC_StartTime@ptr	const PTR unsigned long  size(2) Largest target is 4
		 -> TiOutTmr(COMRAM[4]), Tmr(COMRAM[4]), 

    RxFrm.data	PTR unsigned char  size(2) Largest target is 8
		 -> RxData(BANK5[8]), TxData(BANK5[8]), rxMsgData(BANK5[8]), 

    TxFrm.data	PTR unsigned char  size(2) Largest target is 8
		 -> RxData(BANK5[8]), TxData(BANK5[8]), rxMsgData(BANK5[8]), 

    Timer0_OverflowCallbackRegister@CallbackHandler	PTR FTN()void  size(3) Largest target is 1
		 -> UpdateTmr(), Timer0_DefaultOverflowCallback(), 

    Timer0_OverflowCallback	PTR FTN()void  size(3) Largest target is 1
		 -> UpdateTmr(), Timer0_DefaultOverflowCallback(), NULL(), 

    S1657TMR_INTERFACE$Tasks	PTR FTN()void  size(3) Largest target is 1
		 -> NULL(), 

    Timer0.Tasks	PTR FTN()void  size(3) Largest target is 1
		 -> NULL(), 

    S1657TMR_INTERFACE$TimeoutCallbackRegister	PTR FTN(PTR FTN()void ,)void  size(3) Largest target is 1
		 -> Timer0_OverflowCallbackRegister(), 

    Timer0.TimeoutCallbackRegister	PTR FTN(PTR FTN()void ,)void  size(3) Largest target is 1
		 -> Timer0_OverflowCallbackRegister(), 

    S1657TMR_INTERFACE$PeriodCountSet	PTR FTN(unsigned int ,)void  size(3) Largest target is 1
		 -> Timer0_PeriodCountSet(), 

    Timer0.PeriodCountSet	PTR FTN(unsigned int ,)void  size(3) Largest target is 1
		 -> Timer0_PeriodCountSet(), 

    S1657TMR_INTERFACE$Stop	PTR FTN()void  size(3) Largest target is 1
		 -> Timer0_Stop(), 

    Timer0.Stop	PTR FTN()void  size(3) Largest target is 1
		 -> Timer0_Stop(), 

    S1657TMR_INTERFACE$Start	PTR FTN()void  size(3) Largest target is 1
		 -> Timer0_Start(), 

    Timer0.Start	PTR FTN()void  size(3) Largest target is 1
		 -> Timer0_Start(), 

    S1657TMR_INTERFACE$Initialize	PTR FTN()void  size(3) Largest target is 1
		 -> Timer0_Initialize(), 

    Timer0.Initialize	PTR FTN()void  size(3) Largest target is 1
		 -> Timer0_Initialize(), 

    INT2_SetInterruptHandler@InterruptHandler	PTR FTN()void  size(3) Largest target is 1
		 -> INT2_DefaultInterruptHandler(), 

    INT2_InterruptHandler	PTR FTN()void  size(3) Largest target is 1
		 -> INT2_DefaultInterruptHandler(), NULL(), 

    INT1_SetInterruptHandler@InterruptHandler	PTR FTN()void  size(3) Largest target is 1
		 -> INT1_DefaultInterruptHandler(), 

    INT1_InterruptHandler	PTR FTN()void  size(3) Largest target is 1
		 -> INT1_DefaultInterruptHandler(), NULL(), 

    INT0_SetInterruptHandler@InterruptHandler	PTR FTN()void  size(3) Largest target is 1
		 -> INT0_DefaultInterruptHandler(), 

    INT0_InterruptHandler	PTR FTN()void  size(3) Largest target is 1
		 -> INT0_DefaultInterruptHandler(), NULL(), 

    S1026SPI_INTERFACE$ByteWrite	PTR FTN(unsigned char ,)void  size(3) Largest target is 1
		 -> SPI2_ByteWrite(), 

    SPI2.ByteWrite	PTR FTN(unsigned char ,)void  size(3) Largest target is 1
		 -> SPI2_ByteWrite(), 

    S1026SPI_INTERFACE$ByteRead	PTR FTN()unsigned char  size(3) Largest target is 1
		 -> SPI2_ByteRead(), 

    SPI2.ByteRead	PTR FTN()unsigned char  size(3) Largest target is 1
		 -> SPI2_ByteRead(), 

    S1026SPI_INTERFACE$ByteExchange	PTR FTN(unsigned char ,)unsigned char  size(3) Largest target is 1
		 -> SPI2_ByteExchange(), 

    SPI2.ByteExchange	PTR FTN(unsigned char ,)unsigned char  size(3) Largest target is 1
		 -> SPI2_ByteExchange(), 

    S1026SPI_INTERFACE$BufferWrite	PTR FTN(PTR void ,unsigned int ,)void  size(3) Largest target is 1
		 -> SPI2_BufferWrite(), 

    SPI2.BufferWrite	PTR FTN(PTR void ,unsigned int ,)void  size(3) Largest target is 1
		 -> SPI2_BufferWrite(), 

    S1026SPI_INTERFACE$BufferRead	PTR FTN(PTR void ,unsigned int ,)void  size(3) Largest target is 1
		 -> SPI2_BufferRead(), 

    SPI2.BufferRead	PTR FTN(PTR void ,unsigned int ,)void  size(3) Largest target is 1
		 -> SPI2_BufferRead(), 

    S1026SPI_INTERFACE$BufferExchange	PTR FTN(PTR void ,unsigned int ,)void  size(3) Largest target is 1
		 -> SPI2_BufferExchange(), 

    SPI2.BufferExchange	PTR FTN(PTR void ,unsigned int ,)void  size(3) Largest target is 1
		 -> SPI2_BufferExchange(), 

    S1026SPI_INTERFACE$Open	PTR FTN(unsigned char ,)_Bool  size(3) Largest target is 1
		 -> SPI2_Open(), 

    SPI2.Open	PTR FTN(unsigned char ,)_Bool  size(3) Largest target is 1
		 -> SPI2_Open(), 

    S1026SPI_INTERFACE$Close	PTR FTN()void  size(3) Largest target is 1
		 -> SPI2_Close(), 

    SPI2.Close	PTR FTN()void  size(3) Largest target is 1
		 -> SPI2_Close(), 

    S1026SPI_INTERFACE$Initialize	PTR FTN()void  size(3) Largest target is 1
		 -> SPI2_Initialize(), 

    SPI2.Initialize	PTR FTN()void  size(3) Largest target is 1
		 -> SPI2_Initialize(), 

    CAN1_RxBufferOverFlowHandler	PTR FTN()void  size(3) Largest target is 1
		 -> NULL(), 

    CAN1_TxAttemptHandler	PTR FTN()void  size(3) Largest target is 1
		 -> NULL(), 

    CAN1_SystemErrorHandler	PTR FTN()void  size(3) Largest target is 1
		 -> NULL(), 

    CAN1_ModeChangeHandler	PTR FTN()void  size(3) Largest target is 1
		 -> NULL(), 

    CAN1_BusErrorHandler	PTR FTN()void  size(3) Largest target is 1
		 -> NULL(), 

    CAN1_BusWakeUpActivityHandler	PTR FTN()void  size(3) Largest target is 1
		 -> NULL(), 

    CAN1_InvalidMessageHandler	PTR FTN()void  size(3) Largest target is 1
		 -> NULL(), 

    CAN1_Receive@rxCanMsg	PTR struct CAN_MSG_OBJ size(2) Largest target is 8
		 -> RxFrm(BANK5[7]), 

    CAN1_Transmit@txFifoObj	PTR unsigned char  size(2) Largest target is 14079
		 -> RAM(DATA[14079]), 

    CAN1_Transmit@txCanMsg	PTR struct CAN_MSG_OBJ size(2) Largest target is 8
		 -> TxFrm(BANK5[7]), 

    CAN1_ReceiveFromFiFo@rxCanMsg	PTR struct CAN_MSG_OBJ size(2) Largest target is 8
		 -> RxFrm(BANK5[7]), 

    CAN1_ReceiveFromFiFo@rxFifoObj	PTR unsigned char  size(2) Largest target is 14079
		 -> RAM(DATA[14079]), 

    CAN1_MessageReadFromFifo@rxCanMsg.data	PTR unsigned char  size(2) Largest target is 8
		 -> RxData(BANK5[8]), TxData(BANK5[8]), rxMsgData(BANK5[8]), 

    CAN1_MessageReadFromFifo@rxFifoObj	PTR unsigned char  size(2) Largest target is 14079
		 -> RAM(DATA[14079]), 

    CAN1_MessageReadFromFifo@rxCanMsg	PTR struct CAN_MSG_OBJ size(2) Largest target is 8
		 -> RxFrm(BANK5[7]), 

    CAN1_ValidateTransmission@txCanMsg.data	PTR unsigned char  size(2) Largest target is 8
		 -> RxData(BANK5[8]), TxData(BANK5[8]), rxMsgData(BANK5[8]), 

    CAN1_ValidateTransmission@txCanMsg	PTR struct CAN_MSG_OBJ size(2) Largest target is 8
		 -> TxFrm(BANK5[7]), 

    sp__memcpy	PTR void  size(2) Largest target is 14079
		 -> RAM(DATA[14079]), 

    CAN1_MessageWriteToFifo@txFifoObj	PTR unsigned char  size(2) Largest target is 14079
		 -> RAM(DATA[14079]), 

    S50CAN_MSG_OBJ$data	PTR unsigned char  size(2) Largest target is 8
		 -> RxData(BANK5[8]), TxData(BANK5[8]), rxMsgData(BANK5[8]), 

    CAN1_MessageWriteToFifo@txCanMsg.data	PTR unsigned char  size(2) Largest target is 8
		 -> RxData(BANK5[8]), TxData(BANK5[8]), rxMsgData(BANK5[8]), 

    CAN1_MessageWriteToFifo@txCanMsg	PTR struct CAN_MSG_OBJ size(2) Largest target is 8
		 -> TxFrm(BANK5[7]), 

    FIFO	const PTR volatile struct CAN1_FIFOREG size(2) Largest target is 1
		 -> C1TXQCONL(BITBIGSFRllllll[1]), 

    S94CAN_INTERFACE$Tasks	PTR FTN()void  size(3) Largest target is 1
		 -> CAN1_Tasks(), 

    CAN1.Tasks	PTR FTN()void  size(3) Largest target is 1
		 -> CAN1_Tasks(), 

    S94CAN_INTERFACE$RxBufferOverFlowCallbackRegister	PTR FTN(PTR FTN()void ,)void  size(3) Largest target is 1
		 -> CAN1_RxBufferOverFlowCallbackRegister(), 

    CAN1.RxBufferOverFlowCallbackRegister	PTR FTN(PTR FTN()void ,)void  size(3) Largest target is 1
		 -> CAN1_RxBufferOverFlowCallbackRegister(), 

    S94CAN_INTERFACE$TxAttemptCallbackRegister	PTR FTN(PTR FTN()void ,)void  size(3) Largest target is 1
		 -> CAN1_TxAttemptCallbackRegister(), 

    CAN1.TxAttemptCallbackRegister	PTR FTN(PTR FTN()void ,)void  size(3) Largest target is 1
		 -> CAN1_TxAttemptCallbackRegister(), 

    S94CAN_INTERFACE$SystemErrorCallbackRegister	PTR FTN(PTR FTN()void ,)void  size(3) Largest target is 1
		 -> CAN1_SystemErrorCallbackRegister(), 

    CAN1.SystemErrorCallbackRegister	PTR FTN(PTR FTN()void ,)void  size(3) Largest target is 1
		 -> CAN1_SystemErrorCallbackRegister(), 

    S94CAN_INTERFACE$ModeChangeCallbackRegister	PTR FTN(PTR FTN()void ,)void  size(3) Largest target is 1
		 -> CAN1_ModeChangeCallbackRegister(), 

    CAN1.ModeChangeCallbackRegister	PTR FTN(PTR FTN()void ,)void  size(3) Largest target is 1
		 -> CAN1_ModeChangeCallbackRegister(), 

    S94CAN_INTERFACE$BusErrorCallbackRegister	PTR FTN(PTR FTN()void ,)void  size(3) Largest target is 1
		 -> CAN1_BusErrorCallbackRegister(), 

    CAN1.BusErrorCallbackRegister	PTR FTN(PTR FTN()void ,)void  size(3) Largest target is 1
		 -> CAN1_BusErrorCallbackRegister(), 

    S94CAN_INTERFACE$BusWakeUpActivityCallbackRegister	PTR FTN(PTR FTN()void ,)void  size(3) Largest target is 1
		 -> CAN1_BusWakeUpActivityCallbackRegister(), 

    CAN1.BusWakeUpActivityCallbackRegister	PTR FTN(PTR FTN()void ,)void  size(3) Largest target is 1
		 -> CAN1_BusWakeUpActivityCallbackRegister(), 

    S94CAN_INTERFACE$InvalidMessageCallbackRegister	PTR FTN(PTR FTN()void ,)void  size(3) Largest target is 1
		 -> CAN1_InvalidMessageCallbackRegister(), 

    CAN1.InvalidMessageCallbackRegister	PTR FTN(PTR FTN()void ,)void  size(3) Largest target is 1
		 -> CAN1_InvalidMessageCallbackRegister(), 

    S94CAN_INTERFACE$SleepMode	PTR FTN()void  size(3) Largest target is 1
		 -> CAN1_Sleep(), 

    CAN1.SleepMode	PTR FTN()void  size(3) Largest target is 1
		 -> CAN1_Sleep(), 

    S94CAN_INTERFACE$IsBusOff	PTR FTN()_Bool  size(3) Largest target is 1
		 -> CAN1_IsBusOff(), 

    CAN1.IsBusOff	PTR FTN()_Bool  size(3) Largest target is 1
		 -> CAN1_IsBusOff(), 

    S94CAN_INTERFACE$IsRxErrorActive	PTR FTN()_Bool  size(3) Largest target is 1
		 -> CAN1_IsRxErrorActive(), 

    CAN1.IsRxErrorActive	PTR FTN()_Bool  size(3) Largest target is 1
		 -> CAN1_IsRxErrorActive(), 

    S94CAN_INTERFACE$IsRxErrorWarning	PTR FTN()_Bool  size(3) Largest target is 1
		 -> CAN1_IsRxErrorWarning(), 

    CAN1.IsRxErrorWarning	PTR FTN()_Bool  size(3) Largest target is 1
		 -> CAN1_IsRxErrorWarning(), 

    S94CAN_INTERFACE$IsRxErrorPassive	PTR FTN()_Bool  size(3) Largest target is 1
		 -> CAN1_IsRxErrorPassive(), 

    CAN1.IsRxErrorPassive	PTR FTN()_Bool  size(3) Largest target is 1
		 -> CAN1_IsRxErrorPassive(), 

    S94CAN_INTERFACE$ReceiveFIFOStatusGet	PTR FTN(const enum E22631,)unsigned char  size(3) Largest target is 1
		 -> CAN1_ReceiveFIFOStatusGet(), 

    CAN1.ReceiveFIFOStatusGet	PTR FTN(const enum E22631,)unsigned char  size(3) Largest target is 1
		 -> CAN1_ReceiveFIFOStatusGet(), 

    S94CAN_INTERFACE$ReceivedMessageCountGet	PTR FTN()unsigned char  size(3) Largest target is 1
		 -> CAN1_ReceivedMessageCountGet(), 

    CAN1.ReceivedMessageCountGet	PTR FTN()unsigned char  size(3) Largest target is 1
		 -> CAN1_ReceivedMessageCountGet(), 

    S94CAN_INTERFACE$ReceiveMessageGet	PTR FTN(const enum E22631,PTR struct CAN_MSG_OBJ,)_Bool  size(3) Largest target is 1
		 -> CAN1_ReceiveMessageGet(), 

    CAN1.ReceiveMessageGet	PTR FTN(const enum E22631,PTR struct CAN_MSG_OBJ,)_Bool  size(3) Largest target is 1
		 -> CAN1_ReceiveMessageGet(), 

    S94CAN_INTERFACE$Receive	PTR FTN(PTR struct CAN_MSG_OBJ,)_Bool  size(3) Largest target is 1
		 -> CAN1_Receive(), 

    CAN1.Receive	PTR FTN(PTR struct CAN_MSG_OBJ,)_Bool  size(3) Largest target is 1
		 -> CAN1_Receive(), 

    S94CAN_INTERFACE$IsTxErrorActive	PTR FTN()_Bool  size(3) Largest target is 1
		 -> CAN1_IsTxErrorActive(), 

    CAN1.IsTxErrorActive	PTR FTN()_Bool  size(3) Largest target is 1
		 -> CAN1_IsTxErrorActive(), 

    S94CAN_INTERFACE$IsTxErrorWarning	PTR FTN()_Bool  size(3) Largest target is 1
		 -> CAN1_IsTxErrorWarning(), 

    CAN1.IsTxErrorWarning	PTR FTN()_Bool  size(3) Largest target is 1
		 -> CAN1_IsTxErrorWarning(), 

    S94CAN_INTERFACE$IsTxErrorPassive	PTR FTN()_Bool  size(3) Largest target is 1
		 -> CAN1_IsTxErrorPassive(), 

    CAN1.IsTxErrorPassive	PTR FTN()_Bool  size(3) Largest target is 1
		 -> CAN1_IsTxErrorPassive(), 

    S94CAN_INTERFACE$TransmitFIFOStatusGet	PTR FTN(const enum E22628,)enum E22674 size(3) Largest target is 1
		 -> CAN1_TransmitFIFOStatusGet(), 

    CAN1.TransmitFIFOStatusGet	PTR FTN(const enum E22628,)enum E22674 size(3) Largest target is 1
		 -> CAN1_TransmitFIFOStatusGet(), 

    S94CAN_INTERFACE$Transmit	PTR FTN(const enum E22628,PTR struct CAN_MSG_OBJ,)enum E22656 size(3) Largest target is 1
		 -> CAN1_Transmit(), 

    CAN1.Transmit	PTR FTN(const enum E22628,PTR struct CAN_MSG_OBJ,)enum E22656 size(3) Largest target is 1
		 -> CAN1_Transmit(), 

    S94CAN_INTERFACE$OperationModeGet	PTR FTN()enum E22661 size(3) Largest target is 1
		 -> CAN1_OperationModeGet(), 

    CAN1.OperationModeGet	PTR FTN()enum E22661 size(3) Largest target is 1
		 -> CAN1_OperationModeGet(), 

    S94CAN_INTERFACE$OperationModeSet	PTR FTN(const enum E22661,)enum E22670 size(3) Largest target is 1
		 -> CAN1_OperationModeSet(), 

    CAN1.OperationModeSet	PTR FTN(const enum E22661,)enum E22670 size(3) Largest target is 1
		 -> CAN1_OperationModeSet(), 

    S94CAN_INTERFACE$Deinitialize	PTR FTN()void  size(3) Largest target is 1
		 -> CAN1_Deinitialize(), 

    CAN1.Deinitialize	PTR FTN()void  size(3) Largest target is 1
		 -> CAN1_Deinitialize(), 

    S94CAN_INTERFACE$Initialize	PTR FTN()void  size(3) Largest target is 1
		 -> CAN1_Initialize(), 

    CAN1.Initialize	PTR FTN()void  size(3) Largest target is 1
		 -> CAN1_Initialize(), 


Critical Paths under _main in COMRAM

    _main->_linear_map
    _transmit_P->_SPI2_Open
    _setup_Poti->_SPI2_Open
    _linear_map->___lldiv
    ___lldiv->___lmul
    _SYSTEM_Initialize->_Timer0_Initialize
    _Timer0_Initialize->_Timer0_OverflowCallbackRegister
    _INTERRUPT_Initialize->_INT0_SetInterruptHandler
    _INTERRUPT_Initialize->_INT1_SetInterruptHandler
    _INTERRUPT_Initialize->_INT2_SetInterruptHandler
    _CAN1_Initialize->_CAN1_OperationModeSet
    _CAN1_Transmit->_CAN1_MessageWriteToFifo
    _CAN1_ValidateTransmission->_CAN1_TransmitFIFOStatusGet
    _CAN1_TransmitFIFOStatusGet->_CAN1_IsTxChannel
    _CAN1_MessageWriteToFifo->_memcpy
    _memcpy->_CAN1_DlcToDataBytesGet
    _CAN1_ReceivedMessageCountGet->_CAN1_GetRxFifoDepth
    _CAN1_Receive->_CAN1_ReceiveFromFiFo
    _CAN1_ReceiveFromFiFo->_CAN1_MessageReadFromFifo
    _CAN1_MessageReadFromFifo->_CAN1_DlcToDataBytesGet

Critical Paths under _INTERRUPT_InterruptManager in COMRAM

    None.

Critical Paths under _main in BANK5

    None.

Critical Paths under _INTERRUPT_InterruptManager in BANK5

    None.

Critical Paths under _main in BANK6

    None.

Critical Paths under _INTERRUPT_InterruptManager in BANK6

    None.

Critical Paths under _main in BANK7

    None.

Critical Paths under _INTERRUPT_InterruptManager in BANK7

    None.

Critical Paths under _main in BANK8

    None.

Critical Paths under _INTERRUPT_InterruptManager in BANK8

    None.

Critical Paths under _main in BANK9

    None.

Critical Paths under _INTERRUPT_InterruptManager in BANK9

    None.

Critical Paths under _main in BANK10

    None.

Critical Paths under _INTERRUPT_InterruptManager in BANK10

    None.

Critical Paths under _main in BANK11

    None.

Critical Paths under _INTERRUPT_InterruptManager in BANK11

    None.

Critical Paths under _main in BANK12

    None.

Critical Paths under _INTERRUPT_InterruptManager in BANK12

    None.

Critical Paths under _main in BANK13

    None.

Critical Paths under _INTERRUPT_InterruptManager in BANK13

    None.

Critical Paths under _main in BANK14

    None.

Critical Paths under _INTERRUPT_InterruptManager in BANK14

    None.

Critical Paths under _main in BANK15

    None.

Critical Paths under _INTERRUPT_InterruptManager in BANK15

    None.

Critical Paths under _main in BANK16

    None.

Critical Paths under _INTERRUPT_InterruptManager in BANK16

    None.

Critical Paths under _main in BANK17

    None.

Critical Paths under _INTERRUPT_InterruptManager in BANK17

    None.

Critical Paths under _main in BANK18

    None.

Critical Paths under _INTERRUPT_InterruptManager in BANK18

    None.

Critical Paths under _main in BANK19

    None.

Critical Paths under _INTERRUPT_InterruptManager in BANK19

    None.

Critical Paths under _main in BANK20

    None.

Critical Paths under _INTERRUPT_InterruptManager in BANK20

    None.

Critical Paths under _main in BANK21

    None.

Critical Paths under _INTERRUPT_InterruptManager in BANK21

    None.

Critical Paths under _main in BANK22

    None.

Critical Paths under _INTERRUPT_InterruptManager in BANK22

    None.

Critical Paths under _main in BANK23

    None.

Critical Paths under _INTERRUPT_InterruptManager in BANK23

    None.

Critical Paths under _main in BANK24

    None.

Critical Paths under _INTERRUPT_InterruptManager in BANK24

    None.

Critical Paths under _main in BANK25

    None.

Critical Paths under _INTERRUPT_InterruptManager in BANK25

    None.

Critical Paths under _main in BANK26

    None.

Critical Paths under _INTERRUPT_InterruptManager in BANK26

    None.

Critical Paths under _main in BANK27

    None.

Critical Paths under _INTERRUPT_InterruptManager in BANK27

    None.

Critical Paths under _main in BANK28

    None.

Critical Paths under _INTERRUPT_InterruptManager in BANK28

    None.

Critical Paths under _main in BANK29

    None.

Critical Paths under _INTERRUPT_InterruptManager in BANK29

    None.

Critical Paths under _main in BANK30

    None.

Critical Paths under _INTERRUPT_InterruptManager in BANK30

    None.

Critical Paths under _main in BANK31

    None.

Critical Paths under _INTERRUPT_InterruptManager in BANK31

    None.

Critical Paths under _main in BANK32

    None.

Critical Paths under _INTERRUPT_InterruptManager in BANK32

    None.

Critical Paths under _main in BANK33

    None.

Critical Paths under _INTERRUPT_InterruptManager in BANK33

    None.

Critical Paths under _main in BANK34

    None.

Critical Paths under _INTERRUPT_InterruptManager in BANK34

    None.

Critical Paths under _main in BANK35

    None.

Critical Paths under _INTERRUPT_InterruptManager in BANK35

    None.

Critical Paths under _main in BANK36

    None.

Critical Paths under _INTERRUPT_InterruptManager in BANK36

    None.

Critical Paths under _main in BANK37

    None.

Critical Paths under _INTERRUPT_InterruptManager in BANK37

    None.

Critical Paths under _main in BANK38

    None.

Critical Paths under _INTERRUPT_InterruptManager in BANK38

    None.

Critical Paths under _main in BANK39

    None.

Critical Paths under _INTERRUPT_InterruptManager in BANK39

    None.

Critical Paths under _main in BANK40

    None.

Critical Paths under _INTERRUPT_InterruptManager in BANK40

    None.

Critical Paths under _main in BANK41

    None.

Critical Paths under _INTERRUPT_InterruptManager in BANK41

    None.

Critical Paths under _main in BANK42

    None.

Critical Paths under _INTERRUPT_InterruptManager in BANK42

    None.

Critical Paths under _main in BANK43

    None.

Critical Paths under _INTERRUPT_InterruptManager in BANK43

    None.

Critical Paths under _main in BANK44

    None.

Critical Paths under _INTERRUPT_InterruptManager in BANK44

    None.

Critical Paths under _main in BANK45

    None.

Critical Paths under _INTERRUPT_InterruptManager in BANK45

    None.

Critical Paths under _main in BANK46

    None.

Critical Paths under _INTERRUPT_InterruptManager in BANK46

    None.

Critical Paths under _main in BANK47

    None.

Critical Paths under _INTERRUPT_InterruptManager in BANK47

    None.

Critical Paths under _main in BANK48

    None.

Critical Paths under _INTERRUPT_InterruptManager in BANK48

    None.

Critical Paths under _main in BANK49

    None.

Critical Paths under _INTERRUPT_InterruptManager in BANK49

    None.

Critical Paths under _main in BANK50

    None.

Critical Paths under _INTERRUPT_InterruptManager in BANK50

    None.

Critical Paths under _main in BANK51

    None.

Critical Paths under _INTERRUPT_InterruptManager in BANK51

    None.

Critical Paths under _main in BANK52

    None.

Critical Paths under _INTERRUPT_InterruptManager in BANK52

    None.

Critical Paths under _main in BANK53

    None.

Critical Paths under _INTERRUPT_InterruptManager in BANK53

    None.

Critical Paths under _main in BANK54

    None.

Critical Paths under _INTERRUPT_InterruptManager in BANK54

    None.

Call Graph Tables:

 ---------------------------------------------------------------------------------
 (Depth) Function   	        Calls       Base Space   Used Autos Params    Refs
 ---------------------------------------------------------------------------------
 (0) _main                                                 3     3      0   10903
                                             61 COMRAM     1     1      0
                                              0 BANK5      2     2      0
              _CAN1_OperationModeSet
                       _CAN1_Receive *
       _CAN1_ReceivedMessageCountGet *
                      _CAN1_Transmit *
                   _IO_RTC_GetTimeUS
                   _IO_RTC_StartTime
                  _SYSTEM_Initialize
    _Timer0_OverflowCallbackRegister
                       _Timer0_Start
                        _calculate_P
                         _linear_map
                         _setup_Poti
                         _transmit_P
 ---------------------------------------------------------------------------------
 (1) _transmit_P                                           3     2      1     338
                                              4 COMRAM     3     2      1
                  _SPI2_ByteExchange *
                         _SPI2_Close *
                          _SPI2_Open *
 ---------------------------------------------------------------------------------
 (1) _setup_Poti                                           2     2      0     186
                                              4 COMRAM     2     2      0
                  _SPI2_ByteExchange *
                         _SPI2_Close *
                          _SPI2_Open *
 ---------------------------------------------------------------------------------
 (2) _SPI2_Open                                            2     2      0     155
                                              2 COMRAM     2     2      0
 ---------------------------------------------------------------------------------
 (2) _SPI2_Close                                           0     0      0       0
 ---------------------------------------------------------------------------------
 (2) _SPI2_ByteExchange                                    1     1      0      31
                                              2 COMRAM     1     1      0
 ---------------------------------------------------------------------------------
 (1) _linear_map                                          34    24     10    1934
                                             27 COMRAM    34    24     10
                            ___lldiv
                             ___lmul
 ---------------------------------------------------------------------------------
 (2) ___lmul                                              12     4      8     456
                                              2 COMRAM    12     4      8
 ---------------------------------------------------------------------------------
 (2) ___lldiv                                             13     5      8     421
                                             14 COMRAM    13     5      8
                             ___lmul (ARG)
 ---------------------------------------------------------------------------------
 (1) _calculate_P                                          6     0      6    1572
                                              2 COMRAM     6     0      6
 ---------------------------------------------------------------------------------
 (1) _Timer0_Start                                         0     0      0       0
 ---------------------------------------------------------------------------------
 (1) _SYSTEM_Initialize                                    0     0      0     837
                    _CAN1_Initialize
                   _CLOCK_Initialize
               _INTERRUPT_Initialize
             _PIN_MANAGER_Initialize
                     _PMD_Initialize
                    _SPI2_Initialize
                  _Timer0_Initialize
                    _WWDT_Initialize
 ---------------------------------------------------------------------------------
 (2) _WWDT_Initialize                                      0     0      0       0
 ---------------------------------------------------------------------------------
 (2) _Timer0_Initialize                                    2     2      0     211
                                              5 COMRAM     2     2      0
    _Timer0_OverflowCallbackRegister
 ---------------------------------------------------------------------------------
 (1) _Timer0_OverflowCallbackRegister                      3     0      3     211
                                              2 COMRAM     3     0      3
 ---------------------------------------------------------------------------------
 (2) _SPI2_Initialize                                      0     0      0       0
 ---------------------------------------------------------------------------------
 (2) _PMD_Initialize                                       0     0      0       0
 ---------------------------------------------------------------------------------
 (2) _PIN_MANAGER_Initialize                               0     0      0       0
 ---------------------------------------------------------------------------------
 (2) _INTERRUPT_Initialize                                 0     0      0     363
           _INT0_SetInterruptHandler
           _INT1_SetInterruptHandler
           _INT2_SetInterruptHandler
 ---------------------------------------------------------------------------------
 (3) _INT2_SetInterruptHandler                             3     0      3     121
                                              2 COMRAM     3     0      3
 ---------------------------------------------------------------------------------
 (3) _INT1_SetInterruptHandler                             3     0      3     121
                                              2 COMRAM     3     0      3
 ---------------------------------------------------------------------------------
 (3) _INT0_SetInterruptHandler                             3     0      3     121
                                              2 COMRAM     3     0      3
 ---------------------------------------------------------------------------------
 (2) _CLOCK_Initialize                                     0     0      0       0
 ---------------------------------------------------------------------------------
 (2) _CAN1_Initialize                                      0     0      0     263
          _CAN1_BitRateConfiguration
              _CAN1_OperationModeSet
         _CAN1_RX_FIFO_Configuration
_CAN1_RX_FIFO_FilterMaskConfiguratio
             _CAN1_RX_FIFO_ResetInfo
         _CAN1_TX_FIFO_Configuration
 ---------------------------------------------------------------------------------
 (3) _CAN1_TX_FIFO_Configuration                           0     0      0       0
 ---------------------------------------------------------------------------------
 (3) _CAN1_RX_FIFO_ResetInfo                               1     1      0      99
                                              2 COMRAM     1     1      0
 ---------------------------------------------------------------------------------
 (3) _CAN1_RX_FIFO_FilterMaskConfiguration                 0     0      0       0
 ---------------------------------------------------------------------------------
 (3) _CAN1_RX_FIFO_Configuration                           0     0      0       0
 ---------------------------------------------------------------------------------
 (3) _CAN1_OperationModeSet                                2     2      0     164
                                              2 COMRAM     2     2      0
              _CAN1_OperationModeGet
 ---------------------------------------------------------------------------------
 (4) _CAN1_OperationModeGet                                0     0      0       0
 ---------------------------------------------------------------------------------
 (3) _CAN1_BitRateConfiguration                            0     0      0       0
 ---------------------------------------------------------------------------------
 (1) _IO_RTC_StartTime                                     2     0      2     242
                                              2 COMRAM     2     0      2
 ---------------------------------------------------------------------------------
 (1) _IO_RTC_GetTimeUS                                     4     0      4     211
                                              2 COMRAM     4     0      4
 ---------------------------------------------------------------------------------
 (1) _CAN1_Transmit                                        6     4      2    2263
                                             27 COMRAM     6     4      2
            _CAN1_MessageWriteToFifo
          _CAN1_ValidateTransmission
 ---------------------------------------------------------------------------------
 (2) _CAN1_ValidateTransmission                            5     3      2     455
                                              6 COMRAM     5     3      2
         _CAN1_TransmitFIFOStatusGet
 ---------------------------------------------------------------------------------
 (3) _CAN1_TransmitFIFOStatusGet                           2     2      0     229
                                              4 COMRAM     2     2      0
               _CAN1_GetTxFifoStatus
                   _CAN1_IsTxChannel
 ---------------------------------------------------------------------------------
 (4) _CAN1_IsTxChannel                                     2     2      0      99
                                              2 COMRAM     2     2      0
 ---------------------------------------------------------------------------------
 (4) _CAN1_GetTxFifoStatus                                 1     1      0      31
                                              2 COMRAM     1     1      0
 ---------------------------------------------------------------------------------
 (2) _CAN1_MessageWriteToFifo                             13     9      4    1479
                                             14 COMRAM    13     9      4
             _CAN1_DlcToDataBytesGet
                             _memcpy
 ---------------------------------------------------------------------------------
 (3) _memcpy                                              11     5      6     478
                                              3 COMRAM    11     5      6
             _CAN1_DlcToDataBytesGet (ARG)
 ---------------------------------------------------------------------------------
 (1) _CAN1_ReceivedMessageCountGet                         8     8      0     761
                                              4 COMRAM     8     8      0
                _CAN1_GetRxFifoDepth
               _CAN1_GetRxFifoStatus
 ---------------------------------------------------------------------------------
 (1) _CAN1_Receive                                         4     2      2    2150
                                             24 COMRAM     4     2      2
               _CAN1_ReceiveFromFiFo
 ---------------------------------------------------------------------------------
 (2) _CAN1_ReceiveFromFiFo                                10     7      3    1856
                                             14 COMRAM    10     7      3
                _CAN1_GetRxFifoDepth
               _CAN1_GetRxFifoStatus
           _CAN1_MessageReadFromFifo
 ---------------------------------------------------------------------------------
 (3) _CAN1_MessageReadFromFifo                            11     7      4     988
                                              3 COMRAM    11     7      4
             _CAN1_DlcToDataBytesGet
 ---------------------------------------------------------------------------------
 (3) _CAN1_DlcToDataBytesGet                               1     1      0      31
                                              2 COMRAM     1     1      0
 ---------------------------------------------------------------------------------
 (2) _CAN1_GetRxFifoStatus                                 1     1      0      31
                                              2 COMRAM     1     1      0
 ---------------------------------------------------------------------------------
 (2) _CAN1_GetRxFifoDepth                                  2     2      0      31
                                              2 COMRAM     2     2      0
 ---------------------------------------------------------------------------------
 Estimated maximum stack depth 4
 ---------------------------------------------------------------------------------
 (Depth) Function   	        Calls       Base Space   Used Autos Params    Refs
 ---------------------------------------------------------------------------------
 (5) _INTERRUPT_InterruptManager                           2     2      0       0
                                              0 COMRAM     2     2      0
                _CAN1_InformationISR
                    _PIN_MANAGER_IOC
                 _Timer0_OverflowISR
 ---------------------------------------------------------------------------------
 (6) _Timer0_OverflowISR                                   0     0      0       0
                                NULL *
     _Timer0_DefaultOverflowCallback *
                          _UpdateTmr *
 ---------------------------------------------------------------------------------
 (7) _UpdateTmr                                            0     0      0       0
 ---------------------------------------------------------------------------------
 (7) _Timer0_DefaultOverflowCallback                       0     0      0       0
 ---------------------------------------------------------------------------------
 (7) NULL(Fake)                                            0     0      0       0
 ---------------------------------------------------------------------------------
 (6) _PIN_MANAGER_IOC                                      0     0      0       0
 ---------------------------------------------------------------------------------
 (6) _CAN1_InformationISR                                  0     0      0       0
 ---------------------------------------------------------------------------------
 Estimated maximum stack depth 7
 ---------------------------------------------------------------------------------

 Call Graph Graphs:

 _main (ROOT)
   _CAN1_OperationModeSet
     _CAN1_OperationModeGet
   _CAN1_Receive *
     _CAN1_ReceiveFromFiFo
       _CAN1_GetRxFifoDepth
       _CAN1_GetRxFifoStatus
       _CAN1_MessageReadFromFifo
         _CAN1_DlcToDataBytesGet
   _CAN1_ReceivedMessageCountGet *
     _CAN1_GetRxFifoDepth
     _CAN1_GetRxFifoStatus
   _CAN1_Transmit *
     _CAN1_MessageWriteToFifo
       _CAN1_DlcToDataBytesGet
       _memcpy
         _CAN1_DlcToDataBytesGet (ARG)
     _CAN1_ValidateTransmission
       _CAN1_TransmitFIFOStatusGet
         _CAN1_GetTxFifoStatus
         _CAN1_IsTxChannel
   _IO_RTC_GetTimeUS *
   _IO_RTC_StartTime *
   _SYSTEM_Initialize *
     _CAN1_Initialize
       _CAN1_BitRateConfiguration
       _CAN1_OperationModeSet
       _CAN1_RX_FIFO_Configuration
       _CAN1_RX_FIFO_FilterMaskConfiguration
       _CAN1_RX_FIFO_ResetInfo
       _CAN1_TX_FIFO_Configuration
     _CLOCK_Initialize
     _INTERRUPT_Initialize
       _INT0_SetInterruptHandler
       _INT1_SetInterruptHandler
       _INT2_SetInterruptHandler
     _PIN_MANAGER_Initialize
     _PMD_Initialize
     _SPI2_Initialize
     _Timer0_Initialize
       _Timer0_OverflowCallbackRegister
     _WWDT_Initialize
   _Timer0_OverflowCallbackRegister *
   _Timer0_Start *
   _calculate_P *
   _linear_map *
     ___lldiv
       ___lmul (ARG)
     ___lmul
   _setup_Poti *
     _SPI2_ByteExchange *
     _SPI2_Close *
     _SPI2_Open *
   _transmit_P *
     _SPI2_ByteExchange *
     _SPI2_Close *
     _SPI2_Open *

 _INTERRUPT_InterruptManager (ROOT)
   _CAN1_InformationISR
   _PIN_MANAGER_IOC
   _Timer0_OverflowISR
     NULL(Fake) *
     _Timer0_DefaultOverflowCallback *
     _UpdateTmr *

 Address spaces:
Name               Size   Autos  Total    Cost      Usage
BIGRAM            31FF      0       0     105        0.0%
BITBIGSFR_1        900      0       0     104        0.0%
EEDATA             400      0       0       0        0.0%
BITBANK54          100      0       0     102        0.0%
BANK54             100      0       0     103        0.0%
BITBANK53          100      0       0     100        0.0%
BANK53             100      0       0     101        0.0%
BITBANK52          100      0       0      98        0.0%
BANK52             100      0       0      99        0.0%
BITBANK51          100      0       0      96        0.0%
BANK51             100      0       0      97        0.0%
BITBANK50          100      0       0      94        0.0%
BANK50             100      0       0      95        0.0%
BITBANK49          100      0       0      92        0.0%
BANK49             100      0       0      93        0.0%
BITBANK48          100      0       0      90        0.0%
BANK48             100      0       0      91        0.0%
BITBANK47          100      0       0      88        0.0%
BANK47             100      0       0      89        0.0%
BITBANK46          100      0       0      86        0.0%
BANK46             100      0       0      87        0.0%
BITBANK45          100      0       0      84        0.0%
BANK45             100      0       0      85        0.0%
BITBANK44          100      0       0      82        0.0%
BANK44             100      0       0      83        0.0%
BITBANK43          100      0       0      80        0.0%
BANK43             100      0       0      81        0.0%
BITBANK42          100      0       0      78        0.0%
BANK42             100      0       0      79        0.0%
BITBANK41          100      0       0      76        0.0%
BANK41             100      0       0      77        0.0%
BITBANK40          100      0       0      74        0.0%
BANK40             100      0       0      75        0.0%
BITBANK39          100      0       0      72        0.0%
BANK39             100      0       0      73        0.0%
BITBANK38          100      0       0      70        0.0%
BANK38             100      0       0      71        0.0%
BITBANK37          100      0       0      68        0.0%
BANK37             100      0       0      69        0.0%
BITBANK36          100      0       0      66        0.0%
BANK36             100      0       0      67        0.0%
BITBANK35          100      0       0      64        0.0%
BANK35             100      0       0      65        0.0%
BITBANK34          100      0       0      62        0.0%
BANK34             100      0       0      63        0.0%
BITBANK33          100      0       0      60        0.0%
BANK33             100      0       0      61        0.0%
BITBANK32          100      0       0      58        0.0%
BANK32             100      0       0      59        0.0%
BITBANK31          100      0       0      56        0.0%
BANK31             100      0       0      57        0.0%
BITBANK30          100      0       0      54        0.0%
BANK30             100      0       0      55        0.0%
BITBANK29          100      0       0      52        0.0%
BANK29             100      0       0      53        0.0%
BITBANK28          100      0       0      50        0.0%
BANK28             100      0       0      51        0.0%
BITBANK27          100      0       0      48        0.0%
BANK27             100      0       0      49        0.0%
BITBANK26          100      0       0      46        0.0%
BANK26             100      0       0      47        0.0%
BITBANK25          100      0       0      44        0.0%
BANK25             100      0       0      45        0.0%
BITBANK24          100      0       0      42        0.0%
BANK24             100      0       0      43        0.0%
BITBANK23          100      0       0      40        0.0%
BANK23             100      0       0      41        0.0%
BITBANK22          100      0       0      38        0.0%
BANK22             100      0       0      39        0.0%
BITBANK21          100      0       0      36        0.0%
BANK21             100      0       0      37        0.0%
BITBANK20          100      0       0      34        0.0%
BANK20             100      0       0      35        0.0%
BITBANK19          100      0       0      32        0.0%
BANK19             100      0       0      33        0.0%
BITBANK18          100      0       0      30        0.0%
BANK18             100      0       0      31        0.0%
BITBANK17          100      0       0      28        0.0%
BANK17             100      0       0      29        0.0%
BITBANK16          100      0       0      26        0.0%
BANK16             100      0       0      27        0.0%
BITBANK15          100      0       0      24        0.0%
BANK15             100      0       0      25        0.0%
BITBANK14          100      0       0      22        0.0%
BANK14             100      0       0      23        0.0%
BITBANK13          100      0       0      20        0.0%
BANK13             100      0       0      21        0.0%
BITBANK12          100      0       0      18        0.0%
BANK12             100      0       0      19        0.0%
BITBANK11          100      0       0      16        0.0%
BANK11             100      0       0      17        0.0%
BITBANK10          100      0       0      14        0.0%
BANK10             100      0       0      15        0.0%
BITBANK9           100      0       0      12        0.0%
BANK9              100      0       0      13        0.0%
BITBANK8           100      0       0      10        0.0%
BANK8              100      0       0      11        0.0%
BITBANK7           100      0       0       8        0.0%
BANK7              100      0       0       9        0.0%
BITBANK6           100      0       0       6        0.0%
BANK6              100      0       0       7        0.0%
BITBIGSFRhhhhll     E4      0       0     121        0.0%
BITBANK5            A0      0       0       4        0.0%
BANK5               A0      2      3E       5       38.8%
BITBIGSFRhhhhll     8E      0       0     122        0.0%
BITBIGSFRhhhhll     76      0       0     128        0.0%
BITBIGSFRllllll     60      0       0     146        0.0%
BITCOMRAM           5F      0       0       0        0.0%
COMRAM              5F     3E      5D       1       97.9%
BITBIGSFRlllhhh     4C      0       0     137        0.0%
BITBIGSFRhhhhlh     45      0       0     117        0.0%
BITBIGSFRhhhhlh     30      0       0     118        0.0%
BITBIGSFRhhhhll     2F      0       0     124        0.0%
BITBIGSFRhhhhll     2B      0       0     125        0.0%
BITBIGSFRhhl        1F      0       0     130        0.0%
BITBIGSFRhhhhhh     19      0       0     107        0.0%
BITBIGSFRhhhhll     17      0       0     123        0.0%
BITBIGSFRlhlhh      15      0       0     133        0.0%
BITBIGSFRlhlhlh     14      0       0     134        0.0%
BITBIGSFRlhll       14      0       0     136        0.0%
BITBIGSFRlllllh     13      0       0     144        0.0%
BITBIGSFRlllhhl     12      0       0     140        0.0%
BITBIGSFRhhhhhh      F      0       0     106        0.0%
BITBIGSFRlllllh      F      0       0     145        0.0%
BITBIGSFRhhhhhl      C      0       0     115        0.0%
BITBIGSFRhhhhhh      B      0       0     108        0.0%
BITBIGSFRhhhl        B      0       0     129        0.0%
BITBIGSFRhhhhlh      9      0       0     120        0.0%
BITBIGSFRhl          7      0       0     131        0.0%
BITBIGSFRhhhhhh      5      0       0     110        0.0%
BITBIGSFRhhhhhh      5      0       0     111        0.0%
BITBIGSFRhhhhll      4      0       0     126        0.0%
BITBIGSFRhhhhhh      3      0       0     112        0.0%
BITBIGSFRhhhhlh      2      0       0     119        0.0%
BITBIGSFRlllhlh      2      0       0     141        0.0%
BITBIGSFRlllhll      2      0       0     142        0.0%
BITBIGSFRhhhhhl      2      0       0     116        0.0%
BITBIGSFRlhh         2      0       0     132        0.0%
BITBIGSFRlllhhh      1      0       0     138        0.0%
BITBIGSFRlllhhh      1      0       0     139        0.0%
BITBIGSFRhhhhll      1      0       0     127        0.0%
BITBIGSFRhhhhhh      1      0       0     113        0.0%
BITBIGSFRllllh       1      0       0     143        0.0%
BITBIGSFRhhhhhh      1      0       0     109        0.0%
BITBIGSFRhhhhhh      1      0       0     114        0.0%
BITBIGSFRlhlhll      1      0       0     135        0.0%
BIGSFR_1             0      0       0     200        0.0%
BIGSFR               0      0       0     200        0.0%
BITSFR_14            0      0       0     200        0.0%
SFR_14               0      0       0     200        0.0%
BITSFR_13            0      0       0     200        0.0%
SFR_13               0      0       0     200        0.0%
BITSFR_12            0      0       0     200        0.0%
SFR_12               0      0       0     200        0.0%
BITSFR_11            0      0       0     200        0.0%
SFR_11               0      0       0     200        0.0%
BITSFR_10            0      0       0     200        0.0%
SFR_10               0      0       0     200        0.0%
BITSFR_9             0      0       0     200        0.0%
SFR_9                0      0       0     200        0.0%
BITSFR_8             0      0       0     200        0.0%
SFR_8                0      0       0     200        0.0%
BITSFR_7             0      0       0     200        0.0%
SFR_7                0      0       0     200        0.0%
BITSFR_6             0      0       0     200        0.0%
SFR_6                0      0       0     200        0.0%
BITSFR_5             0      0       0     200        0.0%
SFR_5                0      0       0     200        0.0%
BITSFR_4             0      0       0     200        0.0%
SFR_4                0      0       0     200        0.0%
BITSFR_3             0      0       0     200        0.0%
SFR_3                0      0       0     200        0.0%
BITSFR_2             0      0       0     200        0.0%
SFR_2                0      0       0     200        0.0%
BITSFR_1             0      0       0     200        0.0%
SFR_1                0      0       0     200        0.0%
BITSFR               0      0       0     200        0.0%
SFR                  0      0       0     200        0.0%
STACK                0      0       0       2        0.0%
NULL                 0      0       0       0        0.0%
ABS                  0      0      9B     147        0.0%
DATA                 0      0      9B       3        0.0%
CODE                 0      0       0       0        0.0%


Microchip Technology PIC18 Macro Assembler V2.41 build 20230208172133 
Symbol Table                                                                                   Thu Feb 15 10:28:10 2024

                              _SPI2_BufferWrite 0000                                              _P0 055D  
                                            _P1 055C                                     main@SoC_raw 059C  
                          ??_Timer0_OverflowISR 0501                                             l201 59C8  
                                           l221 5A86                                             l215 519A  
                                           l231 56E2                                             l208 48B2  
                                           l224 58A0                                             l161 5A18  
                                           l242 5428                                             l218 5A72  
                                           l227 5A9A                                             l411 5272  
                                           l172 5A30                                             l420 59AA  
                                           l245 545C                                             l254 5552  
                                           l246 545E                                             l190 58F6  
                                           l414 5B1A                                             l407 59FE  
                                           l168 5800                                             l169 5802  
                                           l185 568E                                             l249 5B0E  
                                           l417 5998                                             l274 5734  
                                           l258 5946                                             l514 57C4  
                                           l179 4ACC                                             l419 59A6  
                                           l292 4FB2                                             l198 5A48  
                                           l702 591E                                             l535 5B04  
                                           l561 5AE8                                             l548 5AF6  
                                           l719 598A                                             l728 5ABE  
                                           l659 5336                                             l763 5874  
                                           l923 437A                                             l860 50B4  
                                           l853 58CC                                             l917 437A  
                                           l766 5B20                                             l856 59E4  
                                           l952 5618                                             l953 5628  
                                           l699 5968                                             l788 5ADA  
                                           l975 53DA                                             l968 53CA  
                                           l888 4642                                             l899 4EA8  
        _CAN1_BusWakeUpActivityCallbackRegister 0000                      ??_INT0_SetInterruptHandler 0506  
                                           _SoC 0558                                             _Tmr 0554  
                      __end_of_IO_RTC_GetTimeUS 59E6                                             prod 04F3  
                           _SPI2_BufferExchange 0000                                             tosl 04FD  
                                           wreg 04E8                      _CAN1_InvalidMessageHandler 054B  
                                          l4000 4BAE                                            l4002 4BE0  
                                          l4010 4C44                                            l4012 4C72  
                                          l4004 4BEC                                            l4014 4C7A  
                                          l4006 4BFE                                            l3400 482A  
                                          l4016 4C96                                            l4008 4C0E  
                                          l3410 489E                                            l3402 4842  
                                          l1618 5784                                            l3322 57C8  
                                          l4018 4CA0               CAN1_ReceivedMessageCountGet@index 050C  
                                          l3404 484A                                            l3500 50BC  
                                          l3340 5736                                            l3332 5A1C  
                                          l3324 57CC                                            l3420 589E  
                                          l3412 5A60                                            l3318 5A02  
                                          l3406 4872                                            l3510 5110  
                                          l3502 50C4                                            l3342 574A  
                                          l3350 576A                                            l3326 57DC  
                                          l3422 5A88                                            l3430 5406  
                                          l3414 5A74                                            l3408 4874  
                  __end_of_CAN1_ReceiveFromFiFo 519C                                            l3520 5180  
                                          l3512 5124                                            l3504 50D2  
                                          l3344 5756                                            l3328 57FC  
                                          l3352 5922                                            l3336 5B06  
                                          l3432 5418                                            l3424 53DE  
                                          l3416 5876                                            l3600 586C  
                                          l3522 5194                                            l3514 5136  
                                          l3506 50EA                                            l3346 575A  
                                          l3450 48B4                                            l3354 5926  
                                          l3434 5436                                            l3426 53E2  
                                          l3418 5890                                            l3370 58E6  
                                          l3362 58CE                                            l3530 5694  
                                          l3442 5AF8                                            l3602 586E  
                                          l3610 55DE                                            l3372 5A34  
                                          l3380 4644                                            l3516 5160  
                                          l3508 50FC                                            l3524 5198  
                                          l3700 4FA0                                            l3348 5766  
                                          l3460 4920                                            l3452 48CC  
                                          l3356 593C                                            l3436 543E  
                                          l3428 53F6                                            l3540 56C8  
                                          l3532 569C                                            l3444 5AEA  
                                          l3604 5AB0                                            l3620 535E  
                                          l3612 55EE                                            l3390 47BA  
                                          l3382 4770                                            l3518 5172  
                                          l3702 4FB0                                            l3470 498E  
                                          l3462 492E                                            l3454 48E6  
                                          l3358 5944                                            l3438 5458  
                                          l3366 58D2                                            l3550 56DC  
                                          l3542 56CC                                            l3534 56B2  
                                          l3446 5ADC                                            l3630 53A8  
                                          l3622 5366                                            l3614 55F8  
                                          l3606 55C0                                            l3376 59AE  
                                          l3392 47D2                                            l3384 477E  
                                          l3472 499C                                            l3464 4940  
                                          l3456 48FC                                            l3480 562C  
                                          l3640 54E0                                            l3368 58E4  
                                          l3544 56D0                                            l3536 56C4  
                                          l3528 5690                                            l3552 59E6  
                                          l3448 5ACE                                            l3632 53B8  
                                          l3624 5372                                            l3616 5338  
                                          l3608 55D0                                            l3560 5214  
                                          l3800 4502                                            l3394 47E0  
                                          l3386 478E                                            l3474 49B4  
                                          l3458 4910                                            l3466 4958  
                                          l3490 5672                                            l3482 5630  
                                          l3650 553E                                            l3642 54F0  
                                          l3546 56D4                                            l3538 56C6  
                                          l3554 59F8                                            l3730 595C  
                                          l3722 5948                                            l3634 53BA  
                                          l3626 5380                                            l3618 5348  
                                          l3570 5B16                                            l3562 5218  
                                          l3810 457E                                            l3802 4512  
                                          l3396 47F4                                            l3388 47A8  
                                          l3660 570C                                            l3476 4A70  
                                          l3468 4982                                            l3492 5688  
                                          l3484 564A                                            l3644 5500  
                                          l3740 58B4                                            l3548 56D8  
                                          l3580 579C                                            l3732 5960  
                                          l3724 5950                                            l3900 41F6  
                                          l3636 53C4                                            l3628 538A  
                                          l3572 598E                                            l3564 523C  
                                          l3556 519E                                            l3820 45FC  
                                          l3812 4596                                            l3804 4514  
                                          l3398 4806                                            l3654 56E4  
                                          l3478 4A8A                                            l3494 568C  
                                          l3486 564C                                            l3646 5518  
                                          l3638 54E0                                            l3742 59CA  
                                          l3590 596A                                            l3582 579E  
                                          l3734 5964                                            l3726 5954  
                                          l3910 4270                                            l3902 420C  
                                          l3574 5994                                            l3566 5270  
                                          l3558 51AE                                            l3822 460C  
                                          l3814 4598                                            l3806 451C  
                                          l3830 4D0A                                            l3664 5720  
                                          l3680 4EDA                                            l3672 4EAA  
                                          l3488 5670                                            l3648 552A  
                                          l3584 57B0                                            l3576 5786  
                                          l3592 58F8                                            l3728 5958  
                                          l3736 5B1C                                            l3920 42E4  
                                          l3912 4286                                            l3904 4228  
                                          l3760 5034                                            l3752 4FD6  
                                          l3824 460E                                            l3816 45A0  
                                          l3808 4550                                            l3840 4D78  
                                          l3832 4D12                                            l3498 50B8  
                                          l3666 5722                                            l3658 56E8  
                                          l3690 4F3E                                            l3682 4EE8  
                                          l3738 58A2                                            l3586 57B2  
                                          l3578 578C                                            l3594 5840  
                                          l3930 435E                                            l3922 4300  
                                          l3914 429C                                            l3906 423E  
                                          l3762 50AC                                            l3754 4FEC  
                                          l3746 4FB4                                            l3826 4616  
                                          l3818 45CE                                            l3770 43B2  
                                          l3850 4DC6                                            l3842 4D88  
                                          l3834 4D14                                            l3668 5732  
                                          l3692 4F5E                                            l3684 4EF0  
                                          l3676 4EBE                                            l3588 5274  
                                          l3596 585A                                            l3924 4316  
                                          l3916 42B8                                            l3908 4254  
                                          l3748 4FCA                                            l3780 4428  
                                          l3772 43B4                                            l3860 4E34  
                                          l3852 4DF4                                            l3844 4D8A  
                                          l3836 4D1C                                            l3828 4CDC  
                                          l3694 4F80                                            l3686 4EFE  
                                          l3678 4ED2                                            l3598 586A  
                                          l3926 432C                                            l3918 42CE  
                                          l3870 408E                                            l3758 4FF8  
                                          l3790 4494                                            l3782 442A  
                                          l3774 43BC                                            l3766 437C  
                                          l3862 4E62                                            l3854 4DFC  
                                          l3846 4D92                                            l3838 4D4A  
                                          l3696 4F9A                                            l3688 4F06  
                                          l3928 4348                                            l3880 4108  
                                          l3872 40A4                                            l3792 449C  
                                          l3784 4432                                            l3776 43EA  
                                          l3768 43AA                                            l3864 4E72  
                                          l3856 4DFE                                            l3848 4DBE  
                                          _CAN1 4001                                            l3698 4F9E  
                                          l3890 417C                                            l3882 411E  
                                          l3874 40C0                                            l3794 449E  
                                          l3786 445E                                            l3778 4418  
                                          l3866 4E74                                            l3858 4E06  
                                          l3892 4198                                            l3884 4134  
                                          l3876 40D6                                            l3796 44A6  
                                          l3788 4466                                            l3868 4E7C  
                                          l3980 4AD2                                            l3894 41AE  
                                          l3886 4150                                            l3878 40EC  
                                          l3798 44D4                                            l3990 4AF2  
                                          l3982 4AD8                                            l3896 41C4  
                                          l3888 4166                                            l3992 4AFE  
                                          l3984 4AE8                                            l3898 41E0  
                                          l3994 4B3A                                            l3986 4AEC  
                                          l3978 4ACE                                            l3996 4B7E  
                                          l3988 4AEE                                            l3998 4B9C  
                                          _FIFO 408A                                            u3000 47A8  
                                          u3001 47A4                                            _LATA 04BE  
                                          u3030 489E                                            _LATB 04BF  
                                          u3031 489A                                            u3015 47AA  
                                          _LATC 04C0                                            u3120 49F2  
                                          u3200 564A                                            u3040 53F6  
                                          u4000 4CD2                                            u3025 47F6  
                                          u3121 49EA                                            u3105 4900  
                                          u3201 5646                                            u3041 53F2  
                                          u4001 4CCE                                            u3210 5670  
                                          u3050 5406                                            u3115 4944  
                                          u3211 566C                                            u3051 5402  
                                          u3140 4A16                                            u3220 5688  
                                          u3060 5418                                            u3300 55DE  
                                          u3141 4A0E                                            u3221 5684  
                                          u3061 5414                                            u3301 55DA  
                                          u3230 50D2                                            u3070 5436  
                                          u3310 5618                                            u3231 50CE  
                                          u3135 49F4                                            u3071 5432  
                                          u3311 5614                                            u3240 50FC  
                                          u3400 4EFE                                            u3160 4A3A  
                                          u3080 5454                                            u3320 535E  
                                          u3241 50F8                                            u3401 4EFA  
                                          u3161 4A32                                            u3081 5450  
                                          u3321 535A                                            u4017 4D0C  
                                          u3250 5160                                            u3410 4F3E  
                                          u3090 48E6                                            u3330 5380  
                                          u3251 515C                                            u3411 4F3A  
                                          u3155 4A18                                            u3091 48E2  
                                          u3331 537C                                            u4107 43AC  
                                          u4027 4D16                                            u3260 5180  
                                          u3420 4F80                                            u3180 4A5E  
                                          u3340 53A8                                            u3261 517C  
                                          u3421 4F7C                                            u3181 4A56  
                                          u3341 53A4                                            u4117 43B6  
                                          u4037 4D7E                                            u3430 4FB0  
                                          u3190 4A8A                                            u3350 5500  
                                          u3270 56B2                                            u3431 4FAC  
                                          u3191 4A86                                            u3175 4A3C  
                                          u3351 54FC                                            u3271 56AE  
                                          u4207 4588                                            u4127 441E  
                                          u4047 4D8C                                            u3360 552A  
                                          u3280 51AE                                            u3361 5526  
                                          u3281 51AA                                            u4217 459A  
                                          u4137 442C                                            u4057 4DC0  
                                          u3370 571C                                            u3290 59A6  
                                          u3371 5718                                            u3291 59A2  
                                          u4227 4602                                            u4147 4460  
                                          u4067 4DF6                                            u3380 5732  
                                          u3188 4A60                                            u2900 593C  
                                          u3460 58B4                                            u3700 40D6  
                                          u3508 43CE                                            u3381 572E  
                                          u2901 5938                                            u3461 58B0  
                                          u3701 40D2                                            u4237 4610  
                                          u4157 4496                                            u3509 43EA  
                                          u4077 4E00                                            u3390 4EE8  
                                          u2910 58F6                                            u3710 40EC  
                                          u3470 4FCA                                            u3518 43FC  
                                          u3391 4EE4                                            u2911 58F2  
                                          u3711 40E8                                            u3471 4FC6  
                                          u4167 44A0                                            u3519 4418  
                                          u4087 4E68                                            u2920 468C  
                                          u3800 423E                                            u3720 411E  
                                          u3480 4FEC                                            u3608 4628  
                                          u3528 4444                                            u2921 4684  
                                          u3801 423A                                            u3721 411A  
                                          u3481 4FE8                                            u3609 4642  
                                          u4177 4508                                            u3529 445E  
                                          u4097 4E76                                            u3810 4254  
                                          u3730 4134                                            u3538 4478  
                                          u3618 4CEE                                            u3811 4250  
                                          u3731 4130                                            u4187 4516  
                                          u3539 4494                                            u3619 4D0A  
                                          u2940 46C2                                            u3820 4286  
                                          u3740 4166                                            u3548 44B8  
                                          u3628 4D2E                                            _PMD0 0060  
                                          u2941 46BA                                            u3821 4282  
                                          u3741 4162                                            u4197 454A  
                                          u3549 44D4                                            u3629 4D4A  
                                          _PMD1 0061                                            u2870 57DC  
                                          u3830 429C                                            u3750 417C  
                                          u3558 44E6                                            u3638 4D5C  
                                          _PMD2 0062                                            u2871 57D8  
                                          u3831 4298                                            u3751 4178  
                                          u3559 4502                                            u3639 4D78  
                                          _PMD3 0063                                            u2960 46FA  
                                          u2880 57FC                                            u3840 42CE  
                                          u3760 41AE                                            u3568 452E  
                                          u3648 4DA4                                            _PMD4 0064  
                                          u2961 46F2                                            u2881 57F8  
                                          u3841 42CA                                            u3761 41AA  
                                          u3569 4548                                            u3649 4DBE  
                                          _PMD5 0065                                            u2938 468E  
                                          u2890 5784                                            u3850 42E4  
                                          u3770 41C4                                            u3690 40A4  
                                          u3578 4562                                            u3498 438E  
                                          u3658 4DD8                                            _PMD6 0066  
                                          u2891 5780                                            u3851 42E0  
                                          u3771 41C0                                            u3691 40A0  
                                          u3579 457E                                            u3499 43AA  
                                          u3659 4DF4                                            _PMD7 0067  
                                          u2980 4734                                            u3860 4316  
                                          u3780 41F6                                            u3588 45B2  
                                          u3668 4E18                                            u3940 4B3A  
                                          _PMD8 0068                                            u2981 472C  
                                          u3861 4312                                            u3781 41F2  
                                          u3589 45CE                                            u3669 4E34  
                                          u3941 4B36                                            u2958 46C4  
                                          u3870 432C                                            u3790 420C  
                                          u3598 45E0                                            u3678 4E46  
                                          u3871 4328                                            u3791 4208  
                                          u3599 45FC                                            u3679 4E62  
                                          u3880 435E                                            u3688 4E8E  
                                          u3960 4B7E                                            u3881 435A  
                                          u3689 4EA8                                            u3961 4B7A  
                                          u2978 46FC                                            u3970 4B9C  
                                          u3938 4B10                                            u3971 4B98  
                                          u3939 4B2A                                            u2998 4736  
                                          u3990 4C72                                            u3958 4B54  
                                          u3991 4C6E                                            u3959 4B6E  
                                          u3988 4C20                                            u3989 4C44  
                                          _SPI2 404F                                            _WPUA 0401  
                                          _WPUB 0409                                            _WPUC 0411  
                                          _WPUE 0421                                fp__CAN1_Transmit 0000  
                        CAN1_Transmit@txFifoObj 051F                                            _main 4ACE  
                    CAN1_ReceiveFromFiFo@status 0514                        ?_CAN1_MessageWriteToFifo 050F  
                                          fsr1h 04E2                                            fsr2h 04DA  
                                          indf1 04E7                                            indf2 04DF  
                                          fsr1l 04E1                                            fsr2l 04D9  
                     ?_INT2_SetInterruptHandler 0503                                            prodh 04F4  
                                          prodl 04F3                                            start 001A  
                                  _CAN1_Receive 56E4                                    ___param_bank 0000  
                   CAN1_ReceiveFromFiFo@channel 050F                                     ?_SPI2_Close 0501  
                        _CAN1_DlcToDataBytesGet 5A00                                           ?_main 0501  
                               __end_of___lldiv 53DC                                           _IOCAF 0407  
                                         _IOCBF 040F                                           _IOCCF 0417  
                                         _IOCEF 0427                                           _IOCAN 0406  
                                         _IOCAP 0405                                           _IOCBN 040E  
                                         _IOCCN 0416                                           _IOCBP 040D  
                                         _IOCCP 0415                                           _IOCEN 0426  
                                         _IOCEP 0425                                           _PCON0 04F0  
                                         i2l343 5A5C                                           i2l344 5A5A  
                                         i2l345 5A5E                                           i2l521 54B0  
                                         i2l522 54D4                                           i2l525 54D4  
                                         i2l519 548C                                           i2l662 5B24  
                                         i2l791 5B22                                           i2l849 5AAE  
                                         i2l785 583E                                           _OSCEN 00B3  
                                         _TMR0H 0319                                           _TMR0L 0318  
                                         _TRISA 04C6                                           _TRISB 04C7  
                                         _TRISC 04C8                                           _TRISE 04CA  
                                _C1FLTCON0Lbits 0180                             ___lmul@multiplicand 0507  
                       CAN1_IsTxChannel@channel 0504                                           _RxFrm 058E  
                                         _TxFrm 0595                              fp__CAN1_Initialize 0000  
                       __end_of_PIN_MANAGER_IOC 5B26                        __end_of_IO_RTC_StartTime 58CE  
                                 _CAN1_IsBusOff 0000                        _INT1_SetInterruptHandler 5AEA  
                                         pclath 04FA                                           pclatu 04FB  
                                         tablat 04F5                                           plusw2 04DB  
                                         status 04D8                    ??_CAN1_TX_FIFO_Configuration 0503  
                                  __end_of_CAN1 404F                                    __end_of_FIFO 408C  
                                  __end_of_SPI2 406A                                 __initialization 5554  
                           CAN1_Transmit@status 051E         CAN1_ReceivedMessageCountGet@rxMsgStatus 0507  
                                  __end_of_main 4CDA                               _SPI2_ByteExchange 598C  
                   CAN1_RX_FIFO_ResetInfo@count 0503                      ?_CAN1_ValidateTransmission 0507  
                     ?_CAN1_MessageReadFromFifo 0504                        __end_of_CAN1_IsTxChannel 5804  
                   ?_INTERRUPT_InterruptManager 0501                                   _CAN1_Transmit 54DE  
                            ?_SPI2_ByteExchange 0501                _CAN1_SystemErrorCallbackRegister 0000  
                                        ??_main 053E                               ??_WWDT_Initialize 0503  
                                 __activetblptr 0003                 CAN1_MessageWriteToFifo@txCanMsg 0511  
                            fp__SPI2_Initialize 0000                             ??_SPI2_ByteExchange 0503  
                                        _C1CONH 0101                                          _C1CONL 0100  
                                        _C1CONT 0103                                          _C1CONU 0102  
                 CAN1_MessageReadFromFifo@index 050E                   CAN1_MessageReadFromFifo@msgId 050A  
                                        _ACTCON 00AC                 __end_of_CAN1_MessageWriteToFifo 4ACE  
                                        _ANSELA 0400                                          _ANSELB 0408  
                                        _ANSELC 0410                                          _T0CON0 031A  
                                        _T0CON1 031B                                          _RB1I2C 0289  
                                        _RB2I2C 0288                                          _RC3I2C 0287  
                                        _RC4I2C 0286                                          _RB1PPS 020A  
                                        _RC0PPS 0211                                          _RB3PPS 020C  
                                        _ODCONA 0402                                          _ODCONB 040A  
                                        _ODCONC 0412                                          i2l3270 54A8  
                                        i2l3262 5468                                          i2l3272 54BE  
                                        i2l3264 5476                                          i2l3274 54CC  
                                        i2l3266 5484                                          i2l3268 549A  
                                        i2l2836 5A9C                                          i2l2960 5806  
                                        _INLVLA 0404                                          i2l2938 5A4A  
                                        i2l2962 580C                                          _INLVLB 040C  
                                        _INLVLC 0414                                          i2l2964 5810  
                                        _INLVLE 0424                                          i2l2966 5824  
                                        i2l2958 5804                                   calculate_P@p0 0503  
                                 calculate_P@p1 0505                         ??_CAN1_OperationModeGet 0503  
                                        _OSCFRQ 00B1                  ??_CAN1_ReceivedMessageCountGet 0505  
                       ??_CAN1_OperationModeSet 0503                    CAN1_ReceiveFromFiFo@rxCanMsg 0510  
                   ??_CAN1_BitRateConfiguration 0503                                          _RxData 0576  
                     __end_of_SPI2_ByteExchange 59AC                               __end_of_SPI2_Open 5274  
                                        _TxData 057E                                          _Timer0 406A  
                                        ___lmul 55C0                                       ??___lldiv 0517  
                                ?_CAN1_Transmit 051C                                          _memcpy 5736  
                          _CAN1_ReceiveFromFiFo 50B6                                          clear_0 559A  
                                        clear_1 55A6               __end_of_CAN1_ValidateTransmission 5690  
                     CAN1_DlcToDataBytesGet@dlc 0503                        ??_CAN1_RX_FIFO_ResetInfo 0503  
                                        isa$std 0001                       _CAN1_ReceiveFIFOStatusGet 0000  
                             ?_CLOCK_Initialize 0501         CAN1_ReceivedMessageCountGet@totalMsgObj 0506  
                                   linear_map@A 0536                                     linear_map@B 0526  
                                   linear_map@V 052E                                     linear_map@X 053A  
                                   linear_map@Y 052A                                    transmit_P@p0 0507  
                                   linear_map@a 051C                                    transmit_P@p1 0505  
                                   linear_map@b 051E                                     linear_map@x 0520  
                                   linear_map@y 0522                                  _PMD_Initialize 58F8  
                  _INT2_DefaultInterruptHandler 0000                                    __pdataCOMRAM 0558  
                            ??_CLOCK_Initialize 0503                                    __mediumconst 0000  
                                        tblptrh 04F7                                          tblptrl 04F6  
                                        tblptru 04F8               CAN1_ValidateTransmission@txCanMsg 0507  
      INT2_SetInterruptHandler@InterruptHandler 0503        INT1_SetInterruptHandler@InterruptHandler 0503  
      INT0_SetInterruptHandler@InterruptHandler 0503                                ?_PIN_MANAGER_IOC 0501  
                   __end_of_CAN1_GetRxFifoDepth 59CA                                 fp__Timer0_Start 0000  
                             _SYSTEM_Initialize 5948              fp__Timer0_OverflowCallbackRegister 0000  
       __end_of_Timer0_OverflowCallbackRegister 5ADC               ??_Timer0_OverflowCallbackRegister 0506  
              ?_Timer0_OverflowCallbackRegister 0503                 _Timer0_OverflowCallbackRegister 5ACE  
                                    __accesstop 0560                         __end_of__initialization 55BA  
                             ??_CAN1_Initialize 0505                            _CAN1_BusErrorHandler 0570  
                   __end_of_CAN1_InformationISR 5A60                              ?_SYSTEM_Initialize 0501  
                           IO_RTC_StartTime@ptr 0503                                   ___rparam_used 0001  
                        _CAN1_ModeChangeHandler 056D                CAN1_GetTxFifoStatus@validChannel 0503  
                    __end_of_spi2_configuration 408A                                  __pcstackCOMRAM 0501  
                                  __pidataBANK5 5AC0                                  _SPI2_ByteWrite 0000  
                           ??_SYSTEM_Initialize 0508                           ?_CAN1_ReceiveFromFiFo 050F  
                  ??_CAN1_TransmitFIFOStatusGet 0505                          __end_of_PMD_Initialize 5920  
                     _CAN1_BitRateConfiguration 5A88                __end_of_INT2_SetInterruptHandler 5AEA  
                             ?_IO_RTC_GetTimeUS 0503                           _CAN1_IsRxErrorPassive 0000  
                            ??_IO_RTC_GetTimeUS 0507                       __end_of_SYSTEM_Initialize 596A  
                         _CAN1_IsRxErrorWarning 0000                               ??_SPI2_Initialize 0503  
                                    __pbssBANK5 0560                           _INT0_InterruptHandler 0548  
            __end_of_CAN1_TX_FIFO_Configuration 5A74                      _CAN1_TX_FIFO_Configuration 5A60  
                       SPI2_Open@spiConfigIndex 0504                CAN1_MessageWriteToFifo@txFifoObj 050F  
                                       IVTBASEH 045E                                         IVTBASEL 045D  
                                       IVTBASEU 045F                   _CAN1_BusErrorCallbackRegister 0000  
                                 ?_Timer0_Start 0501                               __end_of_UpdateTmr 5AB0  
                               ??_CAN1_Transmit 051E                                         ?___lmul 0503  
                 _CAN1_BusWakeUpActivityHandler 0573                         ?_CAN1_DlcToDataBytesGet 0501  
                                     _C1FIFOBAH 014D                                       _C1FIFOBAL 014C  
                                       ?_memcpy 0504                                  ___lmul@product 050B  
             CAN1_MessageReadFromFifo@rxFifoObj 0504                                       _C1NBTCFGH 0105  
                                     _C1NBTCFGL 0104                                       _C1NBTCFGT 0107  
                                     _C1NBTCFGU 0106                                 ?_PMD_Initialize 0501  
                                  ??_SPI2_Close 0503                    _CAN1_RxBufferOverFlowHandler 0564  
                                       _FSCMCON 0458                      ??_INT1_SetInterruptHandler 0506  
                                       _OSCCON1 00AD                                         _OSCCON3 00AF  
                                       _SPI2CLK 0099                                       _C1TXQCONH 0151  
                                     _C1TXQCONL 0150                           _CAN1_TxAttemptHandler 0567  
                                     _C1TXQCONT 0153                                       _C1TXQCONU 0152  
                                       _SPI2RXB 008D                                         _SPI2TXB 008E  
                                       _OSCTUNE 00B0                                     _C1FIFOCON1H 015D  
                                   _C1FIFOCON1L 015C                                     _C1FIFOCON1T 015F  
                                   _C1FIFOCON1U 015E                               CAN1_Receive@index 051C  
                                       _SLRCONA 0403                                         _SLRCONB 040B  
                                       _SLRCONC 0413                                         _WDTCON0 0078  
                                       _WDTCON1 0079                CAN1_MessageReadFromFifo@rxCanMsg 0506  
                             ?_IO_RTC_StartTime 0503                              ??_IO_RTC_StartTime 0505  
              __end_of_CAN1_MessageReadFromFifo 48B4                       ?_INT0_SetInterruptHandler 0503  
                                ??_Timer0_Start 0503                              __end_of_SPI2_Close 5B1C  
                                       __Hparam 0000                                         __Lparam 0000  
                                   _Timer0_Stop 0000                                 _WWDT_Initialize 5AB0  
                __end_of_CAN1_DlcToDataBytesGet 5A1A               fp__Timer0_DefaultOverflowCallback 0000  
              ??_Timer0_DefaultOverflowCallback 0501                 ?_Timer0_DefaultOverflowCallback 0501  
                        ??_CAN1_ReceiveFromFiFo 0512                               _Timer0_Initialize 5840  
                                       ___lldiv 5338                                    __psmallconst 4000  
                                 ??_calculate_P 0509                     ??_CAN1_ValidateTransmission 0509  
                                    _linear_map 4FB4                                         __pcinit 5554  
                            ?_Timer0_Initialize 0501                               ?_CAN1_IsTxChannel 0501  
                                       __ramtop 4000                                         __ptext0 4ACE  
                                       __ptext1 4CDA                                         __ptext2 437C  
                                       __ptext3 519C                                         __ptext4 5B16  
                                       __ptext5 598C                                         __ptext6 4FB4  
                                       __ptext7 55C0                                         __ptext8 5338  
                                       __ptext9 408E                              ??_CAN1_IsTxChannel 0503  
                       _timerTMR0ReloadVal16bit 054E                        ??_PIN_MANAGER_Initialize 0503  
                           ??_Timer0_Initialize 0506                            end_of_initialization 55BA  
                      _INT2_SetInterruptHandler 5ADC                                     _C1TRECHbits 0135  
                                       memcpy@d 050B                                         memcpy@n 0508  
                                     _PIR10bits 04B8                                         memcpy@s 050D  
                        _CAN1_RX_FIFO_ResetInfo 58CE                                     _C1TRECLbits 0134  
                                   _C1TRECUbits 0136                   __end_of_CAN1_OperationModeGet 5B10  
                 __end_of_CAN1_OperationModeSet 5460                    ??_CAN1_RX_FIFO_Configuration 0503  
                               ___lldiv@divisor 0513                                 ___lldiv@counter 051B  
                     __end_of_Timer0_Initialize 5876                                       _SPI2TCNTL 008F  
                                       postdec1 04E5                                         postdec2 04DD  
                                       postinc0 04EE                                         postinc2 04DE  
            __end_of_CAN1_TransmitFIFOStatusGet 5948                      _CAN1_TransmitFIFOStatusGet 5920  
                  CAN1_MessageWriteToFifo@msgId 0518                 CAN1_GetRxFifoDepth@validChannel 0504  
                                     _SPI2_Open 519C                           _INT1_InterruptHandler 0545  
                                    _setup_Poti 437C                              ___INTERNAL_TIMER__ 0560  
              CAN1_TransmitFIFOStatusGet@status 0505                    __end_of_CAN1_GetRxFifoStatus 5A4A  
                               _CAN1_Initialize 5690                             __end_of_calculate_P 437C  
Timer0_OverflowCallbackRegister@CallbackHandler 0503                                       _TRISBbits 04C7  
                               _SPI2_BufferRead 0000    __end_of_CAN1_RX_FIFO_FilterMaskConfiguration 58A2  
        ??_CAN1_RX_FIFO_FilterMaskConfiguration 0503           ?_CAN1_RX_FIFO_FilterMaskConfiguration 0501  
          _CAN1_RX_FIFO_FilterMaskConfiguration 5876                       _CAN1_ValidateTransmission 562A  
                                    _transmit_P 4CDA                                 fp__CAN1_Receive 0000  
                       __end_of_WWDT_Initialize 5AC0                           CAN1_Transmit@txCanMsg 051C  
                     CAN1_ReceiveFromFiFo@index 0518            CAN1_ValidateTransmission@txMsgStatus 050B  
     __end_ofCAN1_DlcToDataBytesGet@dlcByteSize 4085               CAN1_DlcToDataBytesGet@dlcByteSize 407C  
                      _CAN1_MessageReadFromFifo 4644                                  __end_of_Timer0 407C  
                  __end_of_INTERRUPT_Initialize 57C6                         _CAN1_MessageWriteToFifo 48B4  
                  _INT0_DefaultInterruptHandler 0000                                      ?_SPI2_Open 0501  
                                __end_of___lmul 562A                                     ?_linear_map 051C  
                                 __pidataCOMRAM 5B10            __end_of_CAN1_ReceivedMessageCountGet 4FB4  
                  _CAN1_ReceivedMessageCountGet 4EAA                                  __end_of_memcpy 5786  
                               _SPI2_Initialize 59E6                    __end_of_CAN1_GetTxFifoStatus 5A32  
                            _spi2_configuration 4085                            __end_of_Timer0_Start 5B22  
                           start_initialization 5554                            fp__SPI2_ByteExchange 0000  
                                 fp__SPI2_Close 0000                                 linear_map@value 0524  
         CAN1_TransmitFIFOStatusGet@fifoChannel 0506                           _CAN1_IsTxErrorPassive 0000  
                                    ivt0x8_base 0008                           _CAN1_IsTxErrorWarning 0000  
              CAN1_GetRxFifoStatus@validChannel 0503                            _CAN1_IsTxChannel$797 0503  
                   ?_CAN1_TX_FIFO_Configuration 0501                                   ?_CAN1_Receive 0519  
                         SPI2_ByteExchange@data 0503                                ??_PMD_Initialize 0503  
                                      ??___lmul 050B                        fp__CAN1_OperationModeGet 0000  
                      fp__CAN1_OperationModeSet 0000                                     __pdataBANK5 058E  
                       __end_of_CAN1_Initialize 56E4                                        ??_memcpy 050A  
                                   _calculate_P 408E                                       _UpdateTmr 5A9C  
                                   ?_setup_Poti 0501                 fp__CAN1_ReceivedMessageCountGet 0000  
                 ?_CAN1_ReceivedMessageCountGet 0501                                     __pbssCOMRAM 053F  
              __end_of_INT0_SetInterruptHandler 5B06                                   __pcstackBANK5 059C  
                                 _SPI2_ByteRead 0000                            _CAN1_IsRxErrorActive 0000  
                                   ?_transmit_P 0505                               _CAN1_Deinitialize 0000  
                              ?_WWDT_Initialize 0501                           _INT2_InterruptHandler 0542  
            __end_of_CAN1_RX_FIFO_Configuration 5A88                      _CAN1_RX_FIFO_Configuration 5A74  
                                ??_CAN1_Receive 051B                          _PIN_MANAGER_Initialize 5274  
                          _CAN1_GetRxFifoStatus 5A32                       ??_CAN1_MessageWriteToFifo 0513  
     CAN1_ReceivedMessageCountGet@rxfifoMsgTail 050B                         __end_of_SPI2_Initialize 5A00  
                    __end_of_Timer0_OverflowISR 5840                                        _C1MASK0H 0191  
                                      _C1MASK0L 0190                                        _C1MASK0T 0193  
                                      _C1MASK0U 0192                                        ?___lldiv 050F  
                         __end_of_CAN1_Transmit 5554                                     ??_SPI2_Open 0503  
                                    ?_UpdateTmr 0501                    ??_INTERRUPT_InterruptManager 0501  
                                   __smallconst 4000                      ??_INT2_SetInterruptHandler 0506  
                                     _rxFIFOMsg 055A                                      _C1FLTOBJ0H 018D  
                                    _C1FLTOBJ0L 018C                                      _C1FLTOBJ0T 018F  
                                    _C1FLTOBJ0U 018E                                      _C1CONHbits 0101  
        __end_of_Timer0_DefaultOverflowCallback 5B24                  _Timer0_DefaultOverflowCallback 5B22  
              CAN1_OperationModeSet@requestMode 0504                                        _CANRXPPS 023D  
                                    _C1CONTbits 0103                                      _C1CONUbits 0102  
                       ?_CAN1_RX_FIFO_ResetInfo 0501                                      _C1INTHbits 011D  
                                    _C1INTLbits 011C                            _INTERRUPT_Initialize 5786  
                                    _C1INTTbits 011F                                _CLOCK_Initialize 596A  
          CAN1_ReceivedMessageCountGet@numOfMsg 0508                                        _LATAbits 04BE  
                     ?_INT1_SetInterruptHandler 0503                                        _PIE0bits 049E  
                                      _PIE3bits 04A1                           ?_CAN1_GetRxFifoStatus 0501  
                                      i2u212_40 5824                                        i2u212_41 5820  
                                      i2u213_48 582A                                        i2u213_49 583E  
                                      i2u209_40 5A5A                                        i2u209_41 5A56  
                                      _PIR0bits 04AE                                        i2u273_40 5476  
                                      i2u273_41 5472                                        _PIR1bits 04AF  
                                      i2u274_40 5484                                        i2u274_41 5480  
                                      i2u275_40 549A                            _CAN1_GetTxFifoStatus 5A1A  
                                      i2u275_41 5496                                       _rxMsgData 0586  
                                      i2u276_40 54A8                                        i2u276_41 54A4  
                                      i2u277_40 54BE                                        i2u277_41 54BA  
                                      _PIR3bits 04B1                                    _SPI2CON0bits 0091  
                                      _SPI2BAUD 0096                                        i2u278_40 54CC  
                                      i2u278_41 54C8                                        _PIR5bits 04B3  
                                      _SPI2CON0 0091                                        _SPI2CON1 0092  
                                      _SPI2CON2 0093                                        _PIR6bits 04B4  
                   ?_CAN1_TransmitFIFOStatusGet 0501                               ??_PIN_MANAGER_IOC 0501  
                              ?_CAN1_Initialize 0501                              CAN1_Receive@status 051B  
                __end_of_CAN1_RX_FIFO_ResetInfo 58F8                                      _CAN1_Tasks 0000  
                                    _CAN1_Sleep 0000                                     _INTCON0bits 04D6  
                             ___lmul@multiplier 0503                                       copy_data0 5568  
                                     copy_data1 5588                           ?_INTERRUPT_Initialize 0501  
                      _INT0_SetInterruptHandler 5AF8                            _CAN1_IsTxErrorActive 0000  
                    ??_CAN1_MessageReadFromFifo 0508                                    fp__SPI2_Open 0000  
                                      _TiOutTmr 0550                                _IO_RTC_GetTimeUS 59CA  
                                      __Hrparam 0000                           ?_CAN1_GetTxFifoStatus 0501  
                                  _Timer0_Start 5B1C                 _CAN1_ModeChangeCallbackRegister 0000  
                                     memcpy@tmp 050A                           _CAN1_OperationModeGet 5B06  
                                      __Lrparam 0000                           _CAN1_OperationModeSet 53DC  
                       _CAN1_SystemErrorHandler 056A                                ?_SPI2_Initialize 0501  
              CAN1_ValidateTransmission@channel 050A                                    ??_linear_map 0526  
                                   ??_UpdateTmr 0501                             _CAN1_GetRxFifoDepth 59AC  
                          __end_of_CAN1_Receive 5736                                      _T0CON0bits 031A  
                                      __pivt0x8 0008                            fp__Timer0_Initialize 0000  
                                      __ptext10 5B1C                                        __ptext11 5948  
                                      __ptext20 5AEA                                        __ptext12 5AB0  
                                      __ptext21 5AF8                                        __ptext13 5840  
                                      __ptext30 5A88                                        __ptext22 596A  
                                      __ptext14 5ACE                                        __ptext31 58A2  
                                      __ptext23 5690                                        __ptext15 59E6  
                                      __ptext40 4EAA                                        __ptext32 59CA  
                                      __ptext24 5A60                                        __ptext16 58F8  
                                      __ptext41 56E4                                        __ptext33 54DE  
                                      __ptext25 58CE                                        __ptext17 5274  
                                      __ptext50 5A9C                                        __ptext42 50B6  
                                      __ptext34 562A                                        __ptext26 5876  
                                      __ptext18 5786                                        __ptext51 5B24  
                                      __ptext43 4644                                        __ptext35 5920  
                                      __ptext27 5A74                                        __ptext19 5ADC  
                                      __ptext52 5A4A                                        __ptext44 5A00  
                                      __ptext36 57C6                                        __ptext28 53DC  
                                      __ptext53 0000                                        __ptext45 5A32  
                                      __ptext37 5A1A                                        __ptext29 5B06  
                                      __ptext46 59AC                                        __ptext38 48B4  
                                      __ptext47 5460                                        __ptext39 5736  
                                      __ptext48 5804                                        __ptext49 5B22  
                            calculate_P@percent 0507                             _CAN1_InformationISR 5A4A  
                   CAN1_OperationModeSet@status 0503                        ??_CAN1_DlcToDataBytesGet 0503  
                            __end_of_linear_map 50B6                          ??_CAN1_GetRxFifoStatus 0503  
         _CAN1_RxBufferOverFlowCallbackRegister 0000                            ?_CAN1_GetRxFifoDepth 0501  
                                      isa$xinst 0000         CAN1_ReceivedMessageCountGet@fifoChannel 0509  
                              _IO_RTC_StartTime 58A2                            ?_CAN1_InformationISR 0501  
            __end_of_INTERRUPT_InterruptManager 54DE                      _INTERRUPT_InterruptManager 5460  
                                  ?_calculate_P 0503                    _INT1_DefaultInterruptHandler 0000  
                                  ??_setup_Poti 0505                   fp__CAN1_TransmitFIFOStatusGet 0000  
                        _CAN1_ReceiveMessageGet 0000                                   linear_map@ret 0532  
           _CAN1_InvalidMessageCallbackRegister 0000                                        memcpy@d1 0504  
                                      memcpy@s1 0506                          ??_INTERRUPT_Initialize 0506  
                       _Timer0_OverflowCallback 053F                                    ??_transmit_P 0506  
                                      intlevel2 0000                                _CAN1_IsTxChannel 57C6  
                                 _C1TXQSTALbits 0154                                ___lldiv@dividend 050F  
                       ?_PIN_MANAGER_Initialize 0501                                    fp__UpdateTmr 0000  
                         ??_CAN1_GetRxFifoDepth 0503                     ?_CAN1_RX_FIFO_Configuration 0501  
                        ??_CAN1_GetTxFifoStatus 0503                          ?_CAN1_OperationModeGet 0501  
                    ?_CAN1_BitRateConfiguration 0501                          ?_CAN1_OperationModeSet 0501  
                            __end_of_setup_Poti 4644                           ??_CAN1_InformationISR 0501  
                                    _SPI2SCKPPS 026D                                      _SPI2SDIPPS 026E  
                _CAN1_TxAttemptCallbackRegister 0000                        __end_of_CLOCK_Initialize 598C  
                            __end_of_transmit_P 4EAA                                      _SPI2_Close 5B16  
                      CAN1_Transmit@fifoChannel 0521                                ___lldiv@quotient 0517  
              __end_of_INT1_SetInterruptHandler 5AF8                              _Timer0_OverflowISR 5804  
                          CAN1_Receive@rxCanMsg 0519           CAN1_ReceivedMessageCountGet@fifoDepth 050A  
                         _Timer0_PeriodCountSet 0000                 CAN1_ReceiveFromFiFo@rxMsgStatus 0517  
                               _C1FIFOSTA1Lbits 0160                  __end_of_PIN_MANAGER_Initialize 5338  
                 CAN1_ReceiveFromFiFo@rxFifoObj 0515                             ?_Timer0_OverflowISR 0501  
                               _PIN_MANAGER_IOC 5B24                             IO_RTC_GetTimeUS@tmr 0503  
             __end_of_CAN1_BitRateConfiguration 5A9C  
